
Merging object attributes


Merging program properties

Updated property 0xc0010001 (0x9) to merge build/x86_64/kernel/kernel.o (0x9) and build/x86_64/kernel/cpu/cpu.o (0x1)
Updated property 0xc0010001 (0x9) to merge build/x86_64/kernel/kernel.o (0x9) and build/x86_64/kernel/terminal/terminal.o (0x1)
Updated property 0xc0010001 (0x9) to merge build/x86_64/kernel/kernel.o (0x9) and build/x86_64/arch/x86_64/arch_paging.o (0x1)
Updated property 0xc0010001 (0x9) to merge build/x86_64/kernel/kernel.o (0x9) and build/x86_64/arch/x86_64/interrupt_handler.o (0x1)
Updated property 0xc0010001 (0x9) to merge build/x86_64/kernel/kernel.o (0x9) and build/x86_64/arch/x86_64/lapic.o (0x1)
Updated property 0xc0010001 (0x9) to merge build/x86_64/kernel/kernel.o (0x9) and build/x86_64/arch/x86_64/ioapic.o (0x1)
Updated property 0xc0010001 (0x9) to merge build/x86_64/kernel/kernel.o (0x9) and build/x86_64/arch/x86_64/arch_acpi.o (0x1)
Updated property 0xc0010001 (0x9) to merge build/x86_64/kernel/kernel.o (0x9) and build/x86_64/kernel/acpi/uACPI/source/default_handlers.o (0x1)
Updated property 0xc0010002 (0x1) to merge build/x86_64/kernel/kernel.o (0x1) and build/x86_64/kernel/acpi/uACPI/source/default_handlers.o (0x0)
Updated property 0xc0010001 (0x9) to merge build/x86_64/kernel/kernel.o (0x9) and build/x86_64/kernel/acpi/uACPI/source/event.o (0x1)
Updated property 0xc0010002 (0x1) to merge build/x86_64/kernel/kernel.o (0x1) and build/x86_64/kernel/acpi/uACPI/source/event.o (0x0)
Updated property 0xc0010001 (0x9) to merge build/x86_64/kernel/kernel.o (0x9) and build/x86_64/kernel/acpi/uACPI/source/interpreter.o (0x1)
Updated property 0xc0010002 (0x1) to merge build/x86_64/kernel/kernel.o (0x1) and build/x86_64/kernel/acpi/uACPI/source/interpreter.o (0x0)
Updated property 0xc0010001 (0x9) to merge build/x86_64/kernel/kernel.o (0x9) and build/x86_64/kernel/acpi/uACPI/source/io.o (0x1)
Updated property 0xc0010002 (0x1) to merge build/x86_64/kernel/kernel.o (0x1) and build/x86_64/kernel/acpi/uACPI/source/io.o (0x0)
Updated property 0xc0010001 (0x9) to merge build/x86_64/kernel/kernel.o (0x9) and build/x86_64/kernel/acpi/uACPI/source/mutex.o (0x1)
Updated property 0xc0010002 (0x1) to merge build/x86_64/kernel/kernel.o (0x1) and build/x86_64/kernel/acpi/uACPI/source/mutex.o (0x0)
Updated property 0xc0010001 (0x9) to merge build/x86_64/kernel/kernel.o (0x9) and build/x86_64/kernel/acpi/uACPI/source/namespace.o (0x1)
Updated property 0xc0010002 (0x1) to merge build/x86_64/kernel/kernel.o (0x1) and build/x86_64/kernel/acpi/uACPI/source/namespace.o (0x0)
Updated property 0xc0010001 (0x9) to merge build/x86_64/kernel/kernel.o (0x9) and build/x86_64/kernel/acpi/uACPI/source/notify.o (0x1)
Updated property 0xc0010002 (0x1) to merge build/x86_64/kernel/kernel.o (0x1) and build/x86_64/kernel/acpi/uACPI/source/notify.o (0x0)
Updated property 0xc0010001 (0x9) to merge build/x86_64/kernel/kernel.o (0x9) and build/x86_64/kernel/acpi/uACPI/source/opcodes.o (0x1)
Updated property 0xc0010002 (0x1) to merge build/x86_64/kernel/kernel.o (0x1) and build/x86_64/kernel/acpi/uACPI/source/opcodes.o (0x0)
Updated property 0xc0010001 (0x9) to merge build/x86_64/kernel/kernel.o (0x9) and build/x86_64/kernel/acpi/uACPI/source/opregion.o (0x1)
Updated property 0xc0010002 (0x1) to merge build/x86_64/kernel/kernel.o (0x1) and build/x86_64/kernel/acpi/uACPI/source/opregion.o (0x0)
Updated property 0xc0010001 (0x9) to merge build/x86_64/kernel/kernel.o (0x9) and build/x86_64/kernel/acpi/uACPI/source/osi.o (0x1)
Updated property 0xc0010002 (0x1) to merge build/x86_64/kernel/kernel.o (0x1) and build/x86_64/kernel/acpi/uACPI/source/osi.o (0x0)
Updated property 0xc0010001 (0x9) to merge build/x86_64/kernel/kernel.o (0x9) and build/x86_64/kernel/acpi/uACPI/source/registers.o (0x1)
Updated property 0xc0010002 (0x1) to merge build/x86_64/kernel/kernel.o (0x1) and build/x86_64/kernel/acpi/uACPI/source/registers.o (0x0)
Updated property 0xc0010001 (0x9) to merge build/x86_64/kernel/kernel.o (0x9) and build/x86_64/kernel/acpi/uACPI/source/resources.o (0x1)
Updated property 0xc0010002 (0x1) to merge build/x86_64/kernel/kernel.o (0x1) and build/x86_64/kernel/acpi/uACPI/source/resources.o (0x0)
Updated property 0xc0010001 (0x9) to merge build/x86_64/kernel/kernel.o (0x9) and build/x86_64/kernel/acpi/uACPI/source/shareable.o (0x1)
Updated property 0xc0010002 (0x1) to merge build/x86_64/kernel/kernel.o (0x1) and build/x86_64/kernel/acpi/uACPI/source/shareable.o (0x0)
Updated property 0xc0010001 (0x9) to merge build/x86_64/kernel/kernel.o (0x9) and build/x86_64/kernel/acpi/uACPI/source/sleep.o (0x1)
Updated property 0xc0010002 (0x1) to merge build/x86_64/kernel/kernel.o (0x1) and build/x86_64/kernel/acpi/uACPI/source/sleep.o (0x0)
Updated property 0xc0010001 (0x9) to merge build/x86_64/kernel/kernel.o (0x9) and build/x86_64/kernel/acpi/uACPI/source/types.o (0x1)
Updated property 0xc0010001 (0x9) to merge build/x86_64/kernel/kernel.o (0x9) and build/x86_64/kernel/acpi/uACPI/source/uacpi.o (0x1)
Updated property 0xc0010001 (0x9) to merge build/x86_64/kernel/kernel.o (0x9) and build/x86_64/kernel/acpi/uACPI/source/utilities.o (0x1)
Updated property 0xc0010001 (0x9) to merge build/x86_64/kernel/kernel.o (0x9) and build/x86_64/kernel/acpi/acpi.o (0x1)
Removed property 0xc0010001 to merge build/x86_64/kernel/kernel.o (0x9) and build/x86_64/arch/x86_64/interrupts.o (not found)
Removed property 0xc0010002 to merge build/x86_64/kernel/kernel.o (0x1) and build/x86_64/arch/x86_64/interrupts.o (not found)

Discarded input sections

 .comment       0x0000000000000000       0x1c build/x86_64/kernel/kernel.o
 .note.GNU-stack
                0x0000000000000000        0x0 build/x86_64/kernel/kernel.o
 .note.gnu.property
                0x0000000000000000       0x30 build/x86_64/kernel/kernel.o
 .eh_frame      0x0000000000000000       0x50 build/x86_64/kernel/kernel.o
 .comment       0x0000000000000000       0x1c build/x86_64/kernel/selftest.o
 .note.GNU-stack
                0x0000000000000000        0x0 build/x86_64/kernel/selftest.o
 .note.gnu.property
                0x0000000000000000       0x30 build/x86_64/kernel/selftest.o
 .eh_frame      0x0000000000000000      0x140 build/x86_64/kernel/selftest.o
 .comment       0x0000000000000000       0x1c build/x86_64/kernel/cpu/cpu.o
 .note.GNU-stack
                0x0000000000000000        0x0 build/x86_64/kernel/cpu/cpu.o
 .note.gnu.property
                0x0000000000000000       0x30 build/x86_64/kernel/cpu/cpu.o
 .eh_frame      0x0000000000000000       0x38 build/x86_64/kernel/cpu/cpu.o
 .comment       0x0000000000000000       0x1c build/x86_64/kernel/memory/pmm.o
 .note.GNU-stack
                0x0000000000000000        0x0 build/x86_64/kernel/memory/pmm.o
 .note.gnu.property
                0x0000000000000000       0x30 build/x86_64/kernel/memory/pmm.o
 .eh_frame      0x0000000000000000      0x1b0 build/x86_64/kernel/memory/pmm.o
 .comment       0x0000000000000000       0x1c build/x86_64/kernel/memory/vmm.o
 .note.GNU-stack
                0x0000000000000000        0x0 build/x86_64/kernel/memory/vmm.o
 .note.gnu.property
                0x0000000000000000       0x30 build/x86_64/kernel/memory/vmm.o
 .eh_frame      0x0000000000000000      0x288 build/x86_64/kernel/memory/vmm.o
 .comment       0x0000000000000000       0x1c build/x86_64/kernel/terminal/terminal.o
 .note.GNU-stack
                0x0000000000000000        0x0 build/x86_64/kernel/terminal/terminal.o
 .note.gnu.property
                0x0000000000000000       0x30 build/x86_64/kernel/terminal/terminal.o
 .eh_frame      0x0000000000000000       0x90 build/x86_64/kernel/terminal/terminal.o
 .comment       0x0000000000000000       0x1c build/x86_64/klib/printf/printf.o
 .note.GNU-stack
                0x0000000000000000        0x0 build/x86_64/klib/printf/printf.o
 .note.gnu.property
                0x0000000000000000       0x30 build/x86_64/klib/printf/printf.o
 .eh_frame      0x0000000000000000      0x3f8 build/x86_64/klib/printf/printf.o
 .comment       0x0000000000000000       0x1c build/x86_64/klib/klib.o
 .note.GNU-stack
                0x0000000000000000        0x0 build/x86_64/klib/klib.o
 .note.gnu.property
                0x0000000000000000       0x30 build/x86_64/klib/klib.o
 .eh_frame      0x0000000000000000      0x200 build/x86_64/klib/klib.o
 .comment       0x0000000000000000       0x1c build/x86_64/arch/x86_64/arch_entry.o
 .note.GNU-stack
                0x0000000000000000        0x0 build/x86_64/arch/x86_64/arch_entry.o
 .note.gnu.property
                0x0000000000000000       0x30 build/x86_64/arch/x86_64/arch_entry.o
 .eh_frame      0x0000000000000000       0xf0 build/x86_64/arch/x86_64/arch_entry.o
 .comment       0x0000000000000000       0x1c build/x86_64/arch/x86_64/arch_paging.o
 .note.GNU-stack
                0x0000000000000000        0x0 build/x86_64/arch/x86_64/arch_paging.o
 .note.gnu.property
                0x0000000000000000       0x30 build/x86_64/arch/x86_64/arch_paging.o
 .eh_frame      0x0000000000000000      0x390 build/x86_64/arch/x86_64/arch_paging.o
 .comment       0x0000000000000000       0x1c build/x86_64/arch/x86_64/arch_init.o
 .note.GNU-stack
                0x0000000000000000        0x0 build/x86_64/arch/x86_64/arch_init.o
 .note.gnu.property
                0x0000000000000000       0x30 build/x86_64/arch/x86_64/arch_init.o
 .eh_frame      0x0000000000000000      0x110 build/x86_64/arch/x86_64/arch_init.o
 .comment       0x0000000000000000       0x1c build/x86_64/arch/x86_64/interrupt_handler.o
 .note.GNU-stack
                0x0000000000000000        0x0 build/x86_64/arch/x86_64/interrupt_handler.o
 .note.gnu.property
                0x0000000000000000       0x30 build/x86_64/arch/x86_64/interrupt_handler.o
 .eh_frame      0x0000000000000000       0x60 build/x86_64/arch/x86_64/interrupt_handler.o
 .comment       0x0000000000000000       0x1c build/x86_64/arch/x86_64/lapic.o
 .note.GNU-stack
                0x0000000000000000        0x0 build/x86_64/arch/x86_64/lapic.o
 .note.gnu.property
                0x0000000000000000       0x30 build/x86_64/arch/x86_64/lapic.o
 .eh_frame      0x0000000000000000       0x88 build/x86_64/arch/x86_64/lapic.o
 .comment       0x0000000000000000       0x1c build/x86_64/arch/x86_64/ioapic.o
 .note.GNU-stack
                0x0000000000000000        0x0 build/x86_64/arch/x86_64/ioapic.o
 .note.gnu.property
                0x0000000000000000       0x30 build/x86_64/arch/x86_64/ioapic.o
 .eh_frame      0x0000000000000000       0xd8 build/x86_64/arch/x86_64/ioapic.o
 .comment       0x0000000000000000       0x1c build/x86_64/arch/x86_64/arch_acpi.o
 .note.GNU-stack
                0x0000000000000000        0x0 build/x86_64/arch/x86_64/arch_acpi.o
 .note.gnu.property
                0x0000000000000000       0x30 build/x86_64/arch/x86_64/arch_acpi.o
 .eh_frame      0x0000000000000000       0x30 build/x86_64/arch/x86_64/arch_acpi.o
 .comment       0x0000000000000000       0x1c build/x86_64/kernel/acpi/uACPI/source/default_handlers.o
 .note.GNU-stack
                0x0000000000000000        0x0 build/x86_64/kernel/acpi/uACPI/source/default_handlers.o
 .note.gnu.property
                0x0000000000000000       0x30 build/x86_64/kernel/acpi/uACPI/source/default_handlers.o
 .comment       0x0000000000000000       0x1c build/x86_64/kernel/acpi/uACPI/source/event.o
 .note.GNU-stack
                0x0000000000000000        0x0 build/x86_64/kernel/acpi/uACPI/source/event.o
 .note.gnu.property
                0x0000000000000000       0x30 build/x86_64/kernel/acpi/uACPI/source/event.o
 .comment       0x0000000000000000       0x1c build/x86_64/kernel/acpi/uACPI/source/interpreter.o
 .note.GNU-stack
                0x0000000000000000        0x0 build/x86_64/kernel/acpi/uACPI/source/interpreter.o
 .note.gnu.property
                0x0000000000000000       0x30 build/x86_64/kernel/acpi/uACPI/source/interpreter.o
 .comment       0x0000000000000000       0x1c build/x86_64/kernel/acpi/uACPI/source/io.o
 .note.GNU-stack
                0x0000000000000000        0x0 build/x86_64/kernel/acpi/uACPI/source/io.o
 .note.gnu.property
                0x0000000000000000       0x30 build/x86_64/kernel/acpi/uACPI/source/io.o
 .comment       0x0000000000000000       0x1c build/x86_64/kernel/acpi/uACPI/source/mutex.o
 .note.GNU-stack
                0x0000000000000000        0x0 build/x86_64/kernel/acpi/uACPI/source/mutex.o
 .note.gnu.property
                0x0000000000000000       0x30 build/x86_64/kernel/acpi/uACPI/source/mutex.o
 .comment       0x0000000000000000       0x1c build/x86_64/kernel/acpi/uACPI/source/namespace.o
 .note.GNU-stack
                0x0000000000000000        0x0 build/x86_64/kernel/acpi/uACPI/source/namespace.o
 .note.gnu.property
                0x0000000000000000       0x30 build/x86_64/kernel/acpi/uACPI/source/namespace.o
 .comment       0x0000000000000000       0x1c build/x86_64/kernel/acpi/uACPI/source/notify.o
 .note.GNU-stack
                0x0000000000000000        0x0 build/x86_64/kernel/acpi/uACPI/source/notify.o
 .note.gnu.property
                0x0000000000000000       0x30 build/x86_64/kernel/acpi/uACPI/source/notify.o
 .comment       0x0000000000000000       0x1c build/x86_64/kernel/acpi/uACPI/source/opcodes.o
 .note.GNU-stack
                0x0000000000000000        0x0 build/x86_64/kernel/acpi/uACPI/source/opcodes.o
 .note.gnu.property
                0x0000000000000000       0x30 build/x86_64/kernel/acpi/uACPI/source/opcodes.o
 .comment       0x0000000000000000       0x1c build/x86_64/kernel/acpi/uACPI/source/opregion.o
 .note.GNU-stack
                0x0000000000000000        0x0 build/x86_64/kernel/acpi/uACPI/source/opregion.o
 .note.gnu.property
                0x0000000000000000       0x30 build/x86_64/kernel/acpi/uACPI/source/opregion.o
 .comment       0x0000000000000000       0x1c build/x86_64/kernel/acpi/uACPI/source/osi.o
 .note.GNU-stack
                0x0000000000000000        0x0 build/x86_64/kernel/acpi/uACPI/source/osi.o
 .note.gnu.property
                0x0000000000000000       0x30 build/x86_64/kernel/acpi/uACPI/source/osi.o
 .comment       0x0000000000000000       0x1c build/x86_64/kernel/acpi/uACPI/source/registers.o
 .note.GNU-stack
                0x0000000000000000        0x0 build/x86_64/kernel/acpi/uACPI/source/registers.o
 .note.gnu.property
                0x0000000000000000       0x30 build/x86_64/kernel/acpi/uACPI/source/registers.o
 .comment       0x0000000000000000       0x1c build/x86_64/kernel/acpi/uACPI/source/resources.o
 .note.GNU-stack
                0x0000000000000000        0x0 build/x86_64/kernel/acpi/uACPI/source/resources.o
 .note.gnu.property
                0x0000000000000000       0x30 build/x86_64/kernel/acpi/uACPI/source/resources.o
 .comment       0x0000000000000000       0x1c build/x86_64/kernel/acpi/uACPI/source/shareable.o
 .note.GNU-stack
                0x0000000000000000        0x0 build/x86_64/kernel/acpi/uACPI/source/shareable.o
 .note.gnu.property
                0x0000000000000000       0x30 build/x86_64/kernel/acpi/uACPI/source/shareable.o
 .comment       0x0000000000000000       0x1c build/x86_64/kernel/acpi/uACPI/source/sleep.o
 .note.GNU-stack
                0x0000000000000000        0x0 build/x86_64/kernel/acpi/uACPI/source/sleep.o
 .note.gnu.property
                0x0000000000000000       0x30 build/x86_64/kernel/acpi/uACPI/source/sleep.o
 .comment       0x0000000000000000       0x1c build/x86_64/kernel/acpi/uACPI/source/stdlib.o
 .note.GNU-stack
                0x0000000000000000        0x0 build/x86_64/kernel/acpi/uACPI/source/stdlib.o
 .note.gnu.property
                0x0000000000000000       0x30 build/x86_64/kernel/acpi/uACPI/source/stdlib.o
 .eh_frame      0x0000000000000000      0x108 build/x86_64/kernel/acpi/uACPI/source/stdlib.o
 .comment       0x0000000000000000       0x1c build/x86_64/kernel/acpi/uACPI/source/tables.o
 .note.GNU-stack
                0x0000000000000000        0x0 build/x86_64/kernel/acpi/uACPI/source/tables.o
 .note.gnu.property
                0x0000000000000000       0x30 build/x86_64/kernel/acpi/uACPI/source/tables.o
 .eh_frame      0x0000000000000000      0x418 build/x86_64/kernel/acpi/uACPI/source/tables.o
 .comment       0x0000000000000000       0x1c build/x86_64/kernel/acpi/uACPI/source/types.o
 .note.GNU-stack
                0x0000000000000000        0x0 build/x86_64/kernel/acpi/uACPI/source/types.o
 .note.gnu.property
                0x0000000000000000       0x30 build/x86_64/kernel/acpi/uACPI/source/types.o
 .eh_frame      0x0000000000000000       0x30 build/x86_64/kernel/acpi/uACPI/source/types.o
 .comment       0x0000000000000000       0x1c build/x86_64/kernel/acpi/uACPI/source/uacpi.o
 .note.GNU-stack
                0x0000000000000000        0x0 build/x86_64/kernel/acpi/uACPI/source/uacpi.o
 .note.gnu.property
                0x0000000000000000       0x30 build/x86_64/kernel/acpi/uACPI/source/uacpi.o
 .eh_frame      0x0000000000000000       0xb8 build/x86_64/kernel/acpi/uACPI/source/uacpi.o
 .comment       0x0000000000000000       0x1c build/x86_64/kernel/acpi/uACPI/source/utilities.o
 .note.GNU-stack
                0x0000000000000000        0x0 build/x86_64/kernel/acpi/uACPI/source/utilities.o
 .note.gnu.property
                0x0000000000000000       0x30 build/x86_64/kernel/acpi/uACPI/source/utilities.o
 .eh_frame      0x0000000000000000       0x50 build/x86_64/kernel/acpi/uACPI/source/utilities.o
 .comment       0x0000000000000000       0x1c build/x86_64/kernel/acpi/acpi.o
 .note.GNU-stack
                0x0000000000000000        0x0 build/x86_64/kernel/acpi/acpi.o
 .note.gnu.property
                0x0000000000000000       0x30 build/x86_64/kernel/acpi/acpi.o
 .eh_frame      0x0000000000000000      0x118 build/x86_64/kernel/acpi/acpi.o
 .comment       0x0000000000000000       0x1c build/x86_64/kernel/terminal/flanterm/flanterm.o
 .note.GNU-stack
                0x0000000000000000        0x0 build/x86_64/kernel/terminal/flanterm/flanterm.o
 .note.gnu.property
                0x0000000000000000       0x30 build/x86_64/kernel/terminal/flanterm/flanterm.o
 .eh_frame      0x0000000000000000      0x248 build/x86_64/kernel/terminal/flanterm/flanterm.o
 .comment       0x0000000000000000       0x1c build/x86_64/kernel/terminal/flanterm/flanterm_backends/fb.o
 .note.GNU-stack
                0x0000000000000000        0x0 build/x86_64/kernel/terminal/flanterm/flanterm_backends/fb.o
 .note.gnu.property
                0x0000000000000000       0x30 build/x86_64/kernel/terminal/flanterm/flanterm_backends/fb.o
 .eh_frame      0x0000000000000000      0x558 build/x86_64/kernel/terminal/flanterm/flanterm_backends/fb.o

Memory Configuration

Name             Origin             Length             Attributes
*default*        0x0000000000000000 0xffffffffffffffff

Linker script and memory map

                0xffffffff80000000                . = 0xffffffff80000000
                0xffffffff80000000                PROVIDE (__kernel_start = .)

.limine_requests
                0xffffffff80000000      0x1e0
 *(.limine_requests_start)
 .limine_requests_start
                0xffffffff80000000       0x20 build/x86_64/arch/x86_64/arch_entry.o
 *(.limine_requests)
 .limine_requests
                0xffffffff80000020      0x1a8 build/x86_64/arch/x86_64/arch_entry.o
 *(.limine_requests_end)
 *fill*         0xffffffff800001c8        0x8 
 .limine_requests_end
                0xffffffff800001d0       0x10 build/x86_64/arch/x86_64/arch_entry.o
                0xffffffff80001000                . = ALIGN (CONSTANT (MAXPAGESIZE))

.text           0xffffffff80001000    0x132d5
 *(.text .text.*)
 .text          0xffffffff80001000      0x207 build/x86_64/kernel/kernel.o
                0xffffffff80001000                kmain
                0xffffffff800011d0                smp_kmain
 *fill*         0xffffffff80001207       0x39 
 .text          0xffffffff80001240     0x17f7 build/x86_64/kernel/selftest.o
                0xffffffff80001240                vmm_test
                0xffffffff80001c50                pmm_test
                0xffffffff80002770                klib_test
                0xffffffff80002a20                run_selftests
 *fill*         0xffffffff80002a37        0x9 
 .text          0xffffffff80002a40       0x7b build/x86_64/kernel/cpu/cpu.o
                0xffffffff80002a40                cpus_init
 *fill*         0xffffffff80002abb        0x5 
 .text          0xffffffff80002ac0      0xad0 build/x86_64/kernel/memory/pmm.o
                0xffffffff80002ac0                pmm_alloc_from_region
                0xffffffff80002b20                add_block_to_free_list
                0xffffffff80002b70                buddy_seed_region
                0xffffffff80002c20                buddy_allocator_init
                0xffffffff80002cc0                pmm_init
                0xffffffff800030a0                remove_block_from_free_list
                0xffffffff800030e0                split_block
                0xffffffff80003150                buddy_alloc
                0xffffffff80003240                merge_block
                0xffffffff800032d0                buddy_free
                0xffffffff800033b0                pmm_alloc
                0xffffffff800034c0                pmm_free
 *fill*         0xffffffff80003590       0x10 
 .text          0xffffffff800035a0     0x10cb build/x86_64/kernel/memory/vmm.o
                0xffffffff800037e0                alloc_region_struct
                0xffffffff80003830                free_region_struct
                0xffffffff80003850                add_to_regions_list
                0xffffffff80003870                remove_from_regions_list
                0xffffffff800038b0                remove_existing_mappings
                0xffffffff800038e0                vmm_init
                0xffffffff80003d10                vmm_map_page
                0xffffffff80003d90                vmm_unmap_page
                0xffffffff80003df0                vmm_map_range
                0xffffffff80003e80                vmm_unmap_range
                0xffffffff80003ef0                vmm_protect_page
                0xffffffff80003f60                vmm_protect_range
                0xffffffff80003fe0                vmm_switch_addr_space
                0xffffffff80004030                vmm_virt_to_phys
                0xffffffff80004090                vmm_reserve_region
                0xffffffff800042e0                vmm_free_region
                0xffffffff800045a0                vmm_find_region
 .text.unlikely
                0xffffffff8000466b       0x3c build/x86_64/kernel/memory/vmm.o
 *fill*         0xffffffff800046a7        0x9 
 .text          0xffffffff800046b0       0xa8 build/x86_64/kernel/terminal/terminal.o
                0xffffffff800046b0                terminal_init
                0xffffffff80004750                terminal_get_context
 *fill*         0xffffffff80004758       0x28 
 .text          0xffffffff80004780     0x1dda build/x86_64/klib/printf/printf.o
                0xffffffff80006260                printf_
                0xffffffff80006310                sprintf_
                0xffffffff800063c0                snprintf_
                0xffffffff80006460                vprintf_
                0xffffffff80006490                vsnprintf_
                0xffffffff800064b0                fctprintf
 *fill*         0xffffffff8000655a        0x6 
 .text          0xffffffff80006560      0x733 build/x86_64/klib/klib.o
                0xffffffff80006560                kprintf
                0xffffffff80006640                kterm_write
                0xffffffff80006790                kterm_printf
                0xffffffff80006830                kterm_vprintf
                0xffffffff80006850                memset
                0xffffffff80006900                memcpy
                0xffffffff80006930                memcmp
                0xffffffff80006970                strlen
                0xffffffff800069a0                pa_to_hhdm
                0xffffffff800069b0                hhdm_to_pa
                0xffffffff800069c0                vmalloc
                0xffffffff80006b50                vfree
 *fill*         0xffffffff80006c93       0x2d 
 .text          0xffffffff80006cc0      0x4d5 build/x86_64/arch/x86_64/arch_entry.o
                0xffffffff80006d50                arch_enable_interrupts
                0xffffffff80006d60                arch_disable_interrupts
                0xffffffff80006d70                arch_halt
                0xffffffff80006d80                arch_pause
                0xffffffff80006d90                arch_cpu_id
                0xffffffff80006db0                arch_serial_putchar
                0xffffffff80006dc0                arch_smp_init
                0xffffffff80006e50                _start
 *fill*         0xffffffff80007195       0x2b 
 .text          0xffffffff800071c0     0x1cdc build/x86_64/arch/x86_64/arch_paging.o
                0xffffffff80007300                arch_get_pt
                0xffffffff80007320                arch_set_pt
                0xffffffff800073a0                arch_map_page
                0xffffffff800076d0                arch_unmap_page
                0xffffffff80007980                arch_map_range
                0xffffffff80007fe0                arch_unmap_range
                0xffffffff80008490                arch_protect
                0xffffffff80008790                arch_protect_range
                0xffffffff80008c60                arch_virt_to_phys
 *fill*         0xffffffff80008e9c        0x4 
 .text          0xffffffff80008ea0      0x948 build/x86_64/arch/x86_64/arch_init.o
                0xffffffff80008ea0                build_tss_descriptor
                0xffffffff80008ef0                build_gdt
                0xffffffff80008f20                gdt_init
                0xffffffff80009010                set_idt_entry
                0xffffffff80009050                enable_idt_entry
                0xffffffff80009060                disable_idt_entry
                0xffffffff80009070                isr_init
                0xffffffff80009280                idt_init
                0xffffffff800094f0                disable_pic
                0xffffffff80009500                init_interrupts
                0xffffffff800097c0                arch_init
 *fill*         0xffffffff800097e8        0x8 
 .text          0xffffffff800097f0      0x1de build/x86_64/arch/x86_64/interrupt_handler.o
                0xffffffff800097f0                ISRHANDLER
 *fill*         0xffffffff800099ce        0x2 
 .text          0xffffffff800099d0      0x209 build/x86_64/arch/x86_64/lapic.o
                0xffffffff800099d0                lapic_init
                0xffffffff80009b10                lapic_timer_init
                0xffffffff80009b80                lapic_eoi
 *fill*         0xffffffff80009bd9       0x27 
 .text          0xffffffff80009c00      0x3d7 build/x86_64/arch/x86_64/ioapic.o
                0xffffffff80009c60                ioapic_mask_vector
                0xffffffff80009cc0                ioapic_unmask_vector
                0xffffffff80009d20                ioapic_register_device
                0xffffffff80009da0                ioapic_init
 *fill*         0xffffffff80009fd7       0x29 
 .text          0xffffffff8000a000      0x2ef build/x86_64/arch/x86_64/arch_acpi.o
                0xffffffff8000a000                arch_acpi_init
 .text          0xffffffff8000a2ef        0x0 build/x86_64/kernel/acpi/uACPI/source/default_handlers.o
 .text          0xffffffff8000a2ef        0x0 build/x86_64/kernel/acpi/uACPI/source/event.o
 .text          0xffffffff8000a2ef        0x0 build/x86_64/kernel/acpi/uACPI/source/interpreter.o
 .text          0xffffffff8000a2ef        0x0 build/x86_64/kernel/acpi/uACPI/source/io.o
 .text          0xffffffff8000a2ef        0x0 build/x86_64/kernel/acpi/uACPI/source/mutex.o
 .text          0xffffffff8000a2ef        0x0 build/x86_64/kernel/acpi/uACPI/source/namespace.o
 .text          0xffffffff8000a2ef        0x0 build/x86_64/kernel/acpi/uACPI/source/notify.o
 .text          0xffffffff8000a2ef        0x0 build/x86_64/kernel/acpi/uACPI/source/opcodes.o
 .text          0xffffffff8000a2ef        0x0 build/x86_64/kernel/acpi/uACPI/source/opregion.o
 .text          0xffffffff8000a2ef        0x0 build/x86_64/kernel/acpi/uACPI/source/osi.o
 .text          0xffffffff8000a2ef        0x0 build/x86_64/kernel/acpi/uACPI/source/registers.o
 .text          0xffffffff8000a2ef        0x0 build/x86_64/kernel/acpi/uACPI/source/resources.o
 .text          0xffffffff8000a2ef        0x0 build/x86_64/kernel/acpi/uACPI/source/shareable.o
 .text          0xffffffff8000a2ef        0x0 build/x86_64/kernel/acpi/uACPI/source/sleep.o
 *fill*         0xffffffff8000a2ef       0x11 
 .text          0xffffffff8000a300      0xf2d build/x86_64/kernel/acpi/uACPI/source/stdlib.o
                0xffffffff8000a390                uacpi_strlen
                0xffffffff8000a3c0                uacpi_vsnprintf
                0xffffffff8000b0c0                uacpi_snprintf
                0xffffffff8000b150                uacpi_log
 *fill*         0xffffffff8000b22d       0x13 
 .text          0xffffffff8000b240     0x162b build/x86_64/kernel/acpi/uACPI/source/tables.o
                0xffffffff8000b3b0                uacpi_table_subsystem_available
                0xffffffff8000b3c0                uacpi_deinitialize_tables
                0xffffffff8000b490                uacpi_set_table_installation_handler
                0xffffffff8000b4c0                uacpi_verify_table_checksum
                0xffffffff8000b7e0                uacpi_signatures_match
                0xffffffff8000b7f0                uacpi_check_table_signature
                0xffffffff8000bfe0                uacpi_setup_early_table_access
                0xffffffff8000c3a0                uacpi_table_install_physical_with_origin
                0xffffffff8000c3b0                uacpi_table_install_with_origin
                0xffffffff8000c410                uacpi_table_install
                0xffffffff8000c480                uacpi_table_install_physical
                0xffffffff8000c4b0                uacpi_for_each_table
                0xffffffff8000c540                uacpi_table_find_by_signature
                0xffffffff8000c580                uacpi_table_find
                0xffffffff8000c5b0                uacpi_table_ref
                0xffffffff8000c650                uacpi_table_unref
                0xffffffff8000c6f0                uacpi_table_find_next_with_same_signature
                0xffffffff8000c760                uacpi_table_fadt
                0xffffffff8000c780                uacpi_for_each_subtable
 *fill*         0xffffffff8000c86b        0x5 
 .text          0xffffffff8000c870       0xf9 build/x86_64/kernel/acpi/uACPI/source/types.o
                0xffffffff8000c870                uacpi_address_space_to_string
 *fill*         0xffffffff8000c969        0x7 
 .text          0xffffffff8000c970      0x30f build/x86_64/kernel/acpi/uACPI/source/uacpi.o
                0xffffffff8000c970                uacpi_is_platform_reduced_hardware
                0xffffffff8000c9a0                uacpi_context_set_log_level
                0xffffffff8000c9c0                uacpi_logger_initialize
                0xffffffff8000ca10                uacpi_context_set_proactive_table_checksum
                0xffffffff8000ca40                uacpi_status_to_string
                0xffffffff8000cc60                uacpi_state_reset
 .text.unlikely
                0xffffffff8000cc7f        0x8 build/x86_64/kernel/acpi/uACPI/source/uacpi.o
 *fill*         0xffffffff8000cc87        0x9 
 .text          0xffffffff8000cc90      0x2be build/x86_64/kernel/acpi/uACPI/source/utilities.o
                0xffffffff8000cc90                uacpi_string_to_integer
 *fill*         0xffffffff8000cf4e        0x2 
 .text          0xffffffff8000cf50      0x345 build/x86_64/kernel/acpi/acpi.o
                0xffffffff8000cf50                uacpi_kernel_get_rsdp
                0xffffffff8000cf70                uacpi_kernel_map
                0xffffffff8000d010                uacpi_kernel_unmap
                0xffffffff8000d080                uacpi_kernel_log
                0xffffffff8000d0a0                acpi_get_madt
                0xffffffff8000d100                acpi_init
 *fill*         0xffffffff8000d295       0x2b 
 .text          0xffffffff8000d2c0     0x390a build/x86_64/kernel/terminal/flanterm/flanterm.o
                0xffffffff8000d640                flanterm_context_reinit
                0xffffffff8000d700                flanterm_write
                0xffffffff800109d0                flanterm_flush
                0xffffffff800109e0                flanterm_full_refresh
                0xffffffff800109f0                flanterm_deinit
                0xffffffff80010a00                flanterm_get_dimensions
                0xffffffff80010a20                flanterm_set_autoflush
                0xffffffff80010a30                flanterm_set_callback
                0xffffffff80010a40                flanterm_get_cursor_pos
                0xffffffff80010a50                flanterm_set_cursor_pos
                0xffffffff80010a80                flanterm_set_text_fg
                0xffffffff80010ad0                flanterm_set_text_bg
                0xffffffff80010b20                flanterm_reset_text_fg
                0xffffffff80010b70                flanterm_reset_text_bg
                0xffffffff80010bc0                flanterm_clear
 *fill*         0xffffffff80010bca       0x36 
 .text          0xffffffff80010c00     0x2c48 build/x86_64/kernel/terminal/flanterm/flanterm_backends/fb.o
                0xffffffff80012220                flanterm_fb_init
                0xffffffff80013840                flanterm_fb_set_flush_callback
 *fill*         0xffffffff80013848        0x8 
 .text          0xffffffff80013850      0xa85 build/x86_64/arch/x86_64/interrupts.o
                0xffffffff80013850                ISR0
                0xffffffff80013859                ISR1
                0xffffffff80013862                ISR2
                0xffffffff8001386b                ISR3
                0xffffffff80013874                ISR4
                0xffffffff8001387d                ISR5
                0xffffffff80013886                ISR6
                0xffffffff8001388f                ISR7
                0xffffffff80013898                ISR8
                0xffffffff8001389f                ISR9
                0xffffffff800138a8                ISR10
                0xffffffff800138af                ISR11
                0xffffffff800138b6                ISR12
                0xffffffff800138bd                ISR13
                0xffffffff800138c4                ISR14
                0xffffffff800138cb                ISR15
                0xffffffff800138d4                ISR16
                0xffffffff800138dd                ISR17
                0xffffffff800138e4                ISR18
                0xffffffff800138ed                ISR19
                0xffffffff800138f6                ISR20
                0xffffffff800138ff                ISR21
                0xffffffff80013906                ISR22
                0xffffffff8001390f                ISR23
                0xffffffff80013918                ISR24
                0xffffffff80013921                ISR25
                0xffffffff8001392a                ISR26
                0xffffffff80013933                ISR27
                0xffffffff8001393c                ISR28
                0xffffffff80013945                ISR29
                0xffffffff8001394c                ISR30
                0xffffffff80013953                ISR31
                0xffffffff8001395c                ISR32
                0xffffffff80013965                ISR33
                0xffffffff8001396e                ISR34
                0xffffffff80013977                ISR35
                0xffffffff80013980                ISR36
                0xffffffff80013989                ISR37
                0xffffffff80013992                ISR38
                0xffffffff8001399b                ISR39
                0xffffffff800139a4                ISR40
                0xffffffff800139ad                ISR41
                0xffffffff800139b6                ISR42
                0xffffffff800139bf                ISR43
                0xffffffff800139c8                ISR44
                0xffffffff800139d1                ISR45
                0xffffffff800139da                ISR46
                0xffffffff800139e3                ISR47
                0xffffffff800139ec                ISR48
                0xffffffff800139f5                ISR49
                0xffffffff800139fe                ISR50
                0xffffffff80013a07                ISR51
                0xffffffff80013a10                ISR52
                0xffffffff80013a19                ISR53
                0xffffffff80013a22                ISR54
                0xffffffff80013a2b                ISR55
                0xffffffff80013a34                ISR56
                0xffffffff80013a3d                ISR57
                0xffffffff80013a46                ISR58
                0xffffffff80013a4f                ISR59
                0xffffffff80013a58                ISR60
                0xffffffff80013a61                ISR61
                0xffffffff80013a6a                ISR62
                0xffffffff80013a73                ISR63
                0xffffffff80013a7c                ISR64
                0xffffffff80013a85                ISR65
                0xffffffff80013a8e                ISR66
                0xffffffff80013a97                ISR67
                0xffffffff80013aa0                ISR68
                0xffffffff80013aa9                ISR69
                0xffffffff80013ab2                ISR70
                0xffffffff80013abb                ISR71
                0xffffffff80013ac4                ISR72
                0xffffffff80013acd                ISR73
                0xffffffff80013ad6                ISR74
                0xffffffff80013adf                ISR75
                0xffffffff80013ae8                ISR76
                0xffffffff80013af1                ISR77
                0xffffffff80013afa                ISR78
                0xffffffff80013b03                ISR79
                0xffffffff80013b0c                ISR80
                0xffffffff80013b15                ISR81
                0xffffffff80013b1e                ISR82
                0xffffffff80013b27                ISR83
                0xffffffff80013b30                ISR84
                0xffffffff80013b39                ISR85
                0xffffffff80013b42                ISR86
                0xffffffff80013b4b                ISR87
                0xffffffff80013b54                ISR88
                0xffffffff80013b5d                ISR89
                0xffffffff80013b66                ISR90
                0xffffffff80013b6f                ISR91
                0xffffffff80013b78                ISR92
                0xffffffff80013b81                ISR93
                0xffffffff80013b8a                ISR94
                0xffffffff80013b93                ISR95
                0xffffffff80013b9c                ISR96
                0xffffffff80013ba5                ISR97
                0xffffffff80013bae                ISR98
                0xffffffff80013bb7                ISR99
                0xffffffff80013bc0                ISR100
                0xffffffff80013bc9                ISR101
                0xffffffff80013bd2                ISR102
                0xffffffff80013bdb                ISR103
                0xffffffff80013be4                ISR104
                0xffffffff80013bed                ISR105
                0xffffffff80013bf6                ISR106
                0xffffffff80013bff                ISR107
                0xffffffff80013c08                ISR108
                0xffffffff80013c11                ISR109
                0xffffffff80013c1a                ISR110
                0xffffffff80013c23                ISR111
                0xffffffff80013c2c                ISR112
                0xffffffff80013c35                ISR113
                0xffffffff80013c3e                ISR114
                0xffffffff80013c47                ISR115
                0xffffffff80013c50                ISR116
                0xffffffff80013c59                ISR117
                0xffffffff80013c62                ISR118
                0xffffffff80013c6b                ISR119
                0xffffffff80013c74                ISR120
                0xffffffff80013c7d                ISR121
                0xffffffff80013c86                ISR122
                0xffffffff80013c8f                ISR123
                0xffffffff80013c98                ISR124
                0xffffffff80013ca1                ISR125
                0xffffffff80013caa                ISR126
                0xffffffff80013cb3                ISR127
                0xffffffff80013cbc                ISR128
                0xffffffff80013cc8                ISR129
                0xffffffff80013cd4                ISR130
                0xffffffff80013ce0                ISR131
                0xffffffff80013cec                ISR132
                0xffffffff80013cf8                ISR133
                0xffffffff80013d04                ISR134
                0xffffffff80013d10                ISR135
                0xffffffff80013d1c                ISR136
                0xffffffff80013d28                ISR137
                0xffffffff80013d34                ISR138
                0xffffffff80013d40                ISR139
                0xffffffff80013d4c                ISR140
                0xffffffff80013d58                ISR141
                0xffffffff80013d64                ISR142
                0xffffffff80013d70                ISR143
                0xffffffff80013d7c                ISR144
                0xffffffff80013d88                ISR145
                0xffffffff80013d94                ISR146
                0xffffffff80013da0                ISR147
                0xffffffff80013dac                ISR148
                0xffffffff80013db8                ISR149
                0xffffffff80013dc4                ISR150
                0xffffffff80013dd0                ISR151
                0xffffffff80013ddc                ISR152
                0xffffffff80013de8                ISR153
                0xffffffff80013df4                ISR154
                0xffffffff80013e00                ISR155
                0xffffffff80013e0c                ISR156
                0xffffffff80013e18                ISR157
                0xffffffff80013e24                ISR158
                0xffffffff80013e30                ISR159
                0xffffffff80013e3c                ISR160
                0xffffffff80013e48                ISR161
                0xffffffff80013e54                ISR162
                0xffffffff80013e60                ISR163
                0xffffffff80013e6c                ISR164
                0xffffffff80013e78                ISR165
                0xffffffff80013e84                ISR166
                0xffffffff80013e90                ISR167
                0xffffffff80013e9c                ISR168
                0xffffffff80013ea8                ISR169
                0xffffffff80013eb4                ISR170
                0xffffffff80013ec0                ISR171
                0xffffffff80013ecc                ISR172
                0xffffffff80013ed8                ISR173
                0xffffffff80013ee4                ISR174
                0xffffffff80013ef0                ISR175
                0xffffffff80013efc                ISR176
                0xffffffff80013f08                ISR177
                0xffffffff80013f14                ISR178
                0xffffffff80013f20                ISR179
                0xffffffff80013f2c                ISR180
                0xffffffff80013f38                ISR181
                0xffffffff80013f44                ISR182
                0xffffffff80013f50                ISR183
                0xffffffff80013f5c                ISR184
                0xffffffff80013f68                ISR185
                0xffffffff80013f74                ISR186
                0xffffffff80013f80                ISR187
                0xffffffff80013f8c                ISR188
                0xffffffff80013f98                ISR189
                0xffffffff80013fa4                ISR190
                0xffffffff80013fb0                ISR191
                0xffffffff80013fbc                ISR192
                0xffffffff80013fc8                ISR193
                0xffffffff80013fd4                ISR194
                0xffffffff80013fe0                ISR195
                0xffffffff80013fec                ISR196
                0xffffffff80013ff8                ISR197
                0xffffffff80014004                ISR198
                0xffffffff80014010                ISR199
                0xffffffff8001401c                ISR200
                0xffffffff80014028                ISR201
                0xffffffff80014034                ISR202
                0xffffffff80014040                ISR203
                0xffffffff8001404c                ISR204
                0xffffffff80014058                ISR205
                0xffffffff80014064                ISR206
                0xffffffff80014070                ISR207
                0xffffffff8001407c                ISR208
                0xffffffff80014088                ISR209
                0xffffffff80014094                ISR210
                0xffffffff800140a0                ISR211
                0xffffffff800140ac                ISR212
                0xffffffff800140b8                ISR213
                0xffffffff800140c4                ISR214
                0xffffffff800140d0                ISR215
                0xffffffff800140dc                ISR216
                0xffffffff800140e8                ISR217
                0xffffffff800140f4                ISR218
                0xffffffff80014100                ISR219
                0xffffffff8001410c                ISR220
                0xffffffff80014118                ISR221
                0xffffffff80014124                ISR222
                0xffffffff80014130                ISR223
                0xffffffff8001413c                ISR224
                0xffffffff80014148                ISR225
                0xffffffff80014154                ISR226
                0xffffffff80014160                ISR227
                0xffffffff8001416c                ISR228
                0xffffffff80014178                ISR229
                0xffffffff80014184                ISR230
                0xffffffff80014190                ISR231
                0xffffffff8001419c                ISR232
                0xffffffff800141a8                ISR233
                0xffffffff800141b4                ISR234
                0xffffffff800141c0                ISR235
                0xffffffff800141cc                ISR236
                0xffffffff800141d8                ISR237
                0xffffffff800141e4                ISR238
                0xffffffff800141f0                ISR239
                0xffffffff800141fc                ISR240
                0xffffffff80014208                ISR241
                0xffffffff80014211                ISR242
                0xffffffff8001421a                ISR243
                0xffffffff80014223                ISR244
                0xffffffff8001422c                ISR245
                0xffffffff80014235                ISR246
                0xffffffff8001423e                ISR247
                0xffffffff80014247                ISR248
                0xffffffff80014250                ISR249
                0xffffffff80014259                ISR250
                0xffffffff80014262                ISR251
                0xffffffff8001426b                ISR252
                0xffffffff80014274                ISR253
                0xffffffff8001427d                ISR254
                0xffffffff80014286                ISR255

.iplt           0xffffffff800142d5        0x0
 .iplt          0xffffffff800142d5        0x0 build/x86_64/kernel/kernel.o
                0xffffffff80015000                . = ALIGN (CONSTANT (MAXPAGESIZE))

.rodata         0xffffffff80015000     0x89d0
 *(.rodata .rodata.*)
 .rodata.str1.1
                0xffffffff80015000      0x486 build/x86_64/kernel/kernel.o
                                         0x37 (size before relaxing)
 *fill*         0xffffffff80015486        0x2 
 .rodata.str1.8
                0xffffffff80015488     0x23bf build/x86_64/kernel/kernel.o
                                        0x1b6 (size before relaxing)
 .rodata.str1.1
                0xffffffff80017847        0x0 build/x86_64/kernel/selftest.o
                                         0xbc (size before relaxing)
 .rodata.str1.8
                0xffffffff80017847        0x0 build/x86_64/kernel/selftest.o
                                        0xc9b (size before relaxing)
 *fill*         0xffffffff80017847        0x9 
 .rodata.cst16  0xffffffff80017850       0xd0 build/x86_64/kernel/selftest.o
                                         0x70 (size before relaxing)
 .rodata.str1.8
                0xffffffff80017920        0x0 build/x86_64/kernel/memory/pmm.o
                                        0x131 (size before relaxing)
 .rodata.str1.8
                0xffffffff80017920        0x0 build/x86_64/kernel/memory/vmm.o
                                         0x30 (size before relaxing)
 .rodata.str1.1
                0xffffffff80017920        0x0 build/x86_64/klib/printf/printf.o
                                         0x12 (size before relaxing)
 .rodata        0xffffffff80017920      0x390 build/x86_64/klib/printf/printf.o
 .rodata.cst8   0xffffffff80017cb0       0xa0 build/x86_64/klib/printf/printf.o
 .rodata.cst16  0xffffffff80017d50        0x0 build/x86_64/klib/printf/printf.o
                                         0x10 (size before relaxing)
 .rodata        0xffffffff80017d50        0x3 build/x86_64/klib/klib.o
 .rodata.str1.8
                0xffffffff80017d53        0x0 build/x86_64/arch/x86_64/arch_entry.o
                                         0x6f (size before relaxing)
 .rodata.str1.1
                0xffffffff80017d53        0x0 build/x86_64/arch/x86_64/arch_entry.o
                                         0x1a (size before relaxing)
 *fill*         0xffffffff80017d53        0xd 
 .rodata        0xffffffff80017d60       0x26 build/x86_64/arch/x86_64/arch_entry.o
 *fill*         0xffffffff80017d86        0x2 
 .rodata.cst8   0xffffffff80017d88       0x10 build/x86_64/arch/x86_64/arch_entry.o
 .rodata.str1.8
                0xffffffff80017d98        0x0 build/x86_64/arch/x86_64/arch_paging.o
                                        0x96a (size before relaxing)
 .rodata.str1.8
                0xffffffff80017d98        0x0 build/x86_64/arch/x86_64/arch_init.o
                                         0x5d (size before relaxing)
 *fill*         0xffffffff80017d98        0x8 
 .rodata        0xffffffff80017da0      0x800 build/x86_64/arch/x86_64/arch_init.o
 .rodata.cst16  0xffffffff800185a0        0x0 build/x86_64/arch/x86_64/arch_init.o
                                         0x20 (size before relaxing)
 .rodata.str1.1
                0xffffffff800185a0        0x0 build/x86_64/arch/x86_64/interrupt_handler.o
                                         0xc6 (size before relaxing)
 .rodata.str1.8
                0xffffffff800185a0        0x0 build/x86_64/arch/x86_64/interrupt_handler.o
                                        0x16e (size before relaxing)
 .rodata.str1.8
                0xffffffff800185a0        0x0 build/x86_64/arch/x86_64/lapic.o
                                         0x5b (size before relaxing)
 .rodata.str1.8
                0xffffffff800185a0        0x0 build/x86_64/arch/x86_64/ioapic.o
                                         0x71 (size before relaxing)
 .rodata.str1.1
                0xffffffff800185a0        0x0 build/x86_64/kernel/acpi/uACPI/source/stdlib.o
                                         0x2f (size before relaxing)
 .rodata        0xffffffff800185a0       0xc1 build/x86_64/kernel/acpi/uACPI/source/stdlib.o
 .rodata.str1.8
                0xffffffff80018661        0x0 build/x86_64/kernel/acpi/uACPI/source/tables.o
                                        0x487 (size before relaxing)
 .rodata.str1.1
                0xffffffff80018661        0x0 build/x86_64/kernel/acpi/uACPI/source/tables.o
                                         0x24 (size before relaxing)
 *fill*         0xffffffff80018661       0x1f 
 .rodata        0xffffffff80018680       0xc0 build/x86_64/kernel/acpi/uACPI/source/tables.o
 .rodata.str1.1
                0xffffffff80018740        0x0 build/x86_64/kernel/acpi/uACPI/source/types.o
                                         0xb3 (size before relaxing)
 .rodata        0xffffffff80018740       0x60 build/x86_64/kernel/acpi/uACPI/source/types.o
 .rodata.str1.8
                0xffffffff800187a0        0x0 build/x86_64/kernel/acpi/uACPI/source/uacpi.o
                                        0x21d (size before relaxing)
 .rodata.str1.1
                0xffffffff800187a0        0x0 build/x86_64/kernel/acpi/uACPI/source/uacpi.o
                                        0x1a3 (size before relaxing)
 .rodata        0xffffffff800187a0       0xf8 build/x86_64/kernel/acpi/uACPI/source/uacpi.o
 *fill*         0xffffffff80018898        0x8 
 .rodata        0xffffffff800188a0      0x100 build/x86_64/kernel/acpi/uACPI/source/utilities.o
 .rodata.str1.1
                0xffffffff800189a0        0x0 build/x86_64/kernel/acpi/acpi.o
                                         0x13 (size before relaxing)
 .rodata.str1.8
                0xffffffff800189a0        0x0 build/x86_64/kernel/acpi/acpi.o
                                         0xcf (size before relaxing)
 .rodata        0xffffffff800189a0     0x3f80 build/x86_64/kernel/terminal/flanterm/flanterm.o
 .rodata.cst16  0xffffffff8001c920        0x0 build/x86_64/kernel/terminal/flanterm/flanterm.o
                                         0x20 (size before relaxing)
 .rodata        0xffffffff8001c920     0x1000 build/x86_64/kernel/terminal/flanterm/flanterm_backends/fb.o
 .rodata.cst16  0xffffffff8001d920        0x0 build/x86_64/kernel/terminal/flanterm/flanterm_backends/fb.o
                                         0x10 (size before relaxing)
 .rodata.cst8   0xffffffff8001d920       0xb0 build/x86_64/kernel/terminal/flanterm/flanterm_backends/fb.o

.note.gnu.build-id
                0xffffffff8001d9d0       0x24
 *(.note.gnu.build-id)
 .note.gnu.build-id
                0xffffffff8001d9d0       0x24 build/x86_64/kernel/kernel.o

.rela.dyn       0xffffffff8001d9f8        0x0
 .rela.got      0xffffffff8001d9f8        0x0 build/x86_64/kernel/kernel.o
 .rela.iplt     0xffffffff8001d9f8        0x0 build/x86_64/kernel/kernel.o
 .rela.rodata.cst8
                0xffffffff8001d9f8        0x0 build/x86_64/kernel/kernel.o
                0xffffffff8001e000                . = ALIGN (CONSTANT (MAXPAGESIZE))

.data           0xffffffff8001e000        0xc
 *(.data .data.*)
 .data          0xffffffff8001e000        0x0 build/x86_64/kernel/kernel.o
 .data          0xffffffff8001e000        0x0 build/x86_64/kernel/selftest.o
 .data          0xffffffff8001e000        0x0 build/x86_64/kernel/cpu/cpu.o
 .data          0xffffffff8001e000        0x0 build/x86_64/kernel/memory/pmm.o
 .data          0xffffffff8001e000        0x0 build/x86_64/kernel/memory/vmm.o
 .data          0xffffffff8001e000        0x0 build/x86_64/kernel/terminal/terminal.o
 .data          0xffffffff8001e000        0x0 build/x86_64/klib/printf/printf.o
 .data          0xffffffff8001e000        0x0 build/x86_64/klib/klib.o
 .data          0xffffffff8001e000        0x0 build/x86_64/arch/x86_64/arch_entry.o
 .data          0xffffffff8001e000        0x0 build/x86_64/arch/x86_64/arch_paging.o
 .data          0xffffffff8001e000        0x0 build/x86_64/arch/x86_64/arch_init.o
 .data          0xffffffff8001e000        0x0 build/x86_64/arch/x86_64/interrupt_handler.o
 .data          0xffffffff8001e000        0x0 build/x86_64/arch/x86_64/lapic.o
 .data          0xffffffff8001e000        0x0 build/x86_64/arch/x86_64/ioapic.o
 .data          0xffffffff8001e000        0x0 build/x86_64/arch/x86_64/arch_acpi.o
 .data          0xffffffff8001e000        0x0 build/x86_64/kernel/acpi/uACPI/source/default_handlers.o
 .data          0xffffffff8001e000        0x0 build/x86_64/kernel/acpi/uACPI/source/event.o
 .data          0xffffffff8001e000        0x0 build/x86_64/kernel/acpi/uACPI/source/interpreter.o
 .data          0xffffffff8001e000        0x0 build/x86_64/kernel/acpi/uACPI/source/io.o
 .data          0xffffffff8001e000        0x0 build/x86_64/kernel/acpi/uACPI/source/mutex.o
 .data          0xffffffff8001e000        0x0 build/x86_64/kernel/acpi/uACPI/source/namespace.o
 .data          0xffffffff8001e000        0x0 build/x86_64/kernel/acpi/uACPI/source/notify.o
 .data          0xffffffff8001e000        0x0 build/x86_64/kernel/acpi/uACPI/source/opcodes.o
 .data          0xffffffff8001e000        0x0 build/x86_64/kernel/acpi/uACPI/source/opregion.o
 .data          0xffffffff8001e000        0x0 build/x86_64/kernel/acpi/uACPI/source/osi.o
 .data          0xffffffff8001e000        0x0 build/x86_64/kernel/acpi/uACPI/source/registers.o
 .data          0xffffffff8001e000        0x0 build/x86_64/kernel/acpi/uACPI/source/resources.o
 .data          0xffffffff8001e000        0x0 build/x86_64/kernel/acpi/uACPI/source/shareable.o
 .data          0xffffffff8001e000        0x0 build/x86_64/kernel/acpi/uACPI/source/sleep.o
 .data          0xffffffff8001e000        0x0 build/x86_64/kernel/acpi/uACPI/source/stdlib.o
 .data          0xffffffff8001e000        0xc build/x86_64/kernel/acpi/uACPI/source/tables.o
                0xffffffff8001e000                fadt_version_sizes
 .data          0xffffffff8001e00c        0x0 build/x86_64/kernel/acpi/uACPI/source/types.o
 .data          0xffffffff8001e00c        0x0 build/x86_64/kernel/acpi/uACPI/source/uacpi.o
 .data          0xffffffff8001e00c        0x0 build/x86_64/kernel/acpi/uACPI/source/utilities.o
 .data          0xffffffff8001e00c        0x0 build/x86_64/kernel/acpi/acpi.o
 .data          0xffffffff8001e00c        0x0 build/x86_64/kernel/terminal/flanterm/flanterm.o
 .data          0xffffffff8001e00c        0x0 build/x86_64/kernel/terminal/flanterm/flanterm_backends/fb.o

.got            0xffffffff8001e010        0x0
 .got           0xffffffff8001e010        0x0 build/x86_64/kernel/kernel.o

.got.plt        0xffffffff8001e010        0x0
 .got.plt       0xffffffff8001e010        0x0 build/x86_64/kernel/kernel.o

.igot.plt       0xffffffff8001e010        0x0
 .igot.plt      0xffffffff8001e010        0x0 build/x86_64/kernel/kernel.o

.bss            0xffffffff8001e020    0xf8628
 *(.bss .bss.*)
 .bss           0xffffffff8001e020     0x88f8 build/x86_64/kernel/kernel.o
                0xffffffff8001e020                dispatcher
 *fill*         0xffffffff80026918        0x8 
 .bss           0xffffffff80026920    0x18000 build/x86_64/kernel/selftest.o
 .bss           0xffffffff8003e920        0x0 build/x86_64/kernel/cpu/cpu.o
 .bss           0xffffffff8003e920      0xcc0 build/x86_64/kernel/memory/pmm.o
 .bss           0xffffffff8003f5e0       0x98 build/x86_64/kernel/memory/vmm.o
                0xffffffff8003f5e0                MAX_REGIONS
                0xffffffff8003f5e8                USER_VIRTUAL_END
                0xffffffff8003f5f0                USER_VIRTUAL_BASE
                0xffffffff8003f5f8                KERNEL_VIRTUAL_END
                0xffffffff8003f600                KERNEL_VIRTUAL_BASE
 .bss           0xffffffff8003f678        0x0 build/x86_64/kernel/terminal/terminal.o
 .bss           0xffffffff8003f678        0x0 build/x86_64/klib/printf/printf.o
 .bss           0xffffffff8003f678        0x1 build/x86_64/klib/klib.o
                0xffffffff8003f678                kprintf_lock
 *fill*         0xffffffff8003f679        0x7 
 .bss           0xffffffff8003f680     0x1800 build/x86_64/arch/x86_64/arch_entry.o
 .bss           0xffffffff80040e80        0x0 build/x86_64/arch/x86_64/arch_paging.o
 .bss           0xffffffff80040e80        0x0 build/x86_64/arch/x86_64/arch_init.o
 .bss           0xffffffff80040e80        0x0 build/x86_64/arch/x86_64/interrupt_handler.o
 .bss           0xffffffff80040e80        0x0 build/x86_64/arch/x86_64/lapic.o
 .bss           0xffffffff80040e80        0x0 build/x86_64/arch/x86_64/ioapic.o
 .bss           0xffffffff80040e80        0x0 build/x86_64/arch/x86_64/arch_acpi.o
 .bss           0xffffffff80040e80        0x0 build/x86_64/kernel/acpi/uACPI/source/default_handlers.o
 .bss           0xffffffff80040e80        0x0 build/x86_64/kernel/acpi/uACPI/source/event.o
 .bss           0xffffffff80040e80        0x0 build/x86_64/kernel/acpi/uACPI/source/interpreter.o
 .bss           0xffffffff80040e80        0x0 build/x86_64/kernel/acpi/uACPI/source/io.o
 .bss           0xffffffff80040e80        0x0 build/x86_64/kernel/acpi/uACPI/source/mutex.o
 .bss           0xffffffff80040e80        0x0 build/x86_64/kernel/acpi/uACPI/source/namespace.o
 .bss           0xffffffff80040e80        0x0 build/x86_64/kernel/acpi/uACPI/source/notify.o
 .bss           0xffffffff80040e80        0x0 build/x86_64/kernel/acpi/uACPI/source/opcodes.o
 .bss           0xffffffff80040e80        0x0 build/x86_64/kernel/acpi/uACPI/source/opregion.o
 .bss           0xffffffff80040e80        0x0 build/x86_64/kernel/acpi/uACPI/source/osi.o
 .bss           0xffffffff80040e80        0x0 build/x86_64/kernel/acpi/uACPI/source/registers.o
 .bss           0xffffffff80040e80        0x0 build/x86_64/kernel/acpi/uACPI/source/resources.o
 .bss           0xffffffff80040e80        0x0 build/x86_64/kernel/acpi/uACPI/source/shareable.o
 .bss           0xffffffff80040e80        0x0 build/x86_64/kernel/acpi/uACPI/source/sleep.o
 .bss           0xffffffff80040e80        0x0 build/x86_64/kernel/acpi/uACPI/source/stdlib.o
 .bss           0xffffffff80040e80      0x438 build/x86_64/kernel/acpi/uACPI/source/tables.o
 .bss           0xffffffff800412b8        0x0 build/x86_64/kernel/acpi/uACPI/source/types.o
 *fill*         0xffffffff800412b8        0x8 
 .bss           0xffffffff800412c0      0x129 build/x86_64/kernel/acpi/uACPI/source/uacpi.o
                0xffffffff800412c0                g_uacpi_rt_ctx
 .bss           0xffffffff800413e9        0x0 build/x86_64/kernel/acpi/uACPI/source/utilities.o
 *fill*         0xffffffff800413e9        0x7 
 .bss           0xffffffff800413f0       0x10 build/x86_64/kernel/acpi/acpi.o
                0xffffffff800413f0                uacpi_early_table_buffer
                0xffffffff800413f8                uacpi_rsdp_address
 .bss           0xffffffff80041400        0x0 build/x86_64/kernel/terminal/flanterm/flanterm.o
 .bss           0xffffffff80041400    0xd5248 build/x86_64/kernel/terminal/flanterm/flanterm_backends/fb.o
 *(COMMON)
                0xffffffff80117000                . = ALIGN (CONSTANT (MAXPAGESIZE))
                0xffffffff80117000                PROVIDE (__kernel_end = .)

/DISCARD/
 *(.eh_frame*)
 *(.note .note.*)
 *(.comment)
LOAD build/x86_64/kernel/kernel.o
LOAD build/x86_64/kernel/selftest.o
LOAD build/x86_64/kernel/cpu/cpu.o
LOAD build/x86_64/kernel/memory/pmm.o
LOAD build/x86_64/kernel/memory/vmm.o
LOAD build/x86_64/kernel/terminal/terminal.o
LOAD build/x86_64/klib/printf/printf.o
LOAD build/x86_64/klib/klib.o
LOAD build/x86_64/arch/x86_64/arch_entry.o
LOAD build/x86_64/arch/x86_64/arch_paging.o
LOAD build/x86_64/arch/x86_64/arch_init.o
LOAD build/x86_64/arch/x86_64/interrupt_handler.o
LOAD build/x86_64/arch/x86_64/lapic.o
LOAD build/x86_64/arch/x86_64/ioapic.o
LOAD build/x86_64/arch/x86_64/arch_acpi.o
LOAD build/x86_64/kernel/acpi/uACPI/source/default_handlers.o
LOAD build/x86_64/kernel/acpi/uACPI/source/event.o
LOAD build/x86_64/kernel/acpi/uACPI/source/interpreter.o
LOAD build/x86_64/kernel/acpi/uACPI/source/io.o
LOAD build/x86_64/kernel/acpi/uACPI/source/mutex.o
LOAD build/x86_64/kernel/acpi/uACPI/source/namespace.o
LOAD build/x86_64/kernel/acpi/uACPI/source/notify.o
LOAD build/x86_64/kernel/acpi/uACPI/source/opcodes.o
LOAD build/x86_64/kernel/acpi/uACPI/source/opregion.o
LOAD build/x86_64/kernel/acpi/uACPI/source/osi.o
LOAD build/x86_64/kernel/acpi/uACPI/source/registers.o
LOAD build/x86_64/kernel/acpi/uACPI/source/resources.o
LOAD build/x86_64/kernel/acpi/uACPI/source/shareable.o
LOAD build/x86_64/kernel/acpi/uACPI/source/sleep.o
LOAD build/x86_64/kernel/acpi/uACPI/source/stdlib.o
LOAD build/x86_64/kernel/acpi/uACPI/source/tables.o
LOAD build/x86_64/kernel/acpi/uACPI/source/types.o
LOAD build/x86_64/kernel/acpi/uACPI/source/uacpi.o
LOAD build/x86_64/kernel/acpi/uACPI/source/utilities.o
LOAD build/x86_64/kernel/acpi/acpi.o
LOAD build/x86_64/kernel/terminal/flanterm/flanterm.o
LOAD build/x86_64/kernel/terminal/flanterm/flanterm_backends/fb.o
LOAD build/x86_64/arch/x86_64/interrupts.o
OUTPUT(bin/kernel-x86_64.elf elf64-x86-64)
