
Merging program properties


Discarded input sections

 .comment       0x0000000000000000       0x13 build/aarch64/kernel/kernel.o
 .note.GNU-stack
                0x0000000000000000        0x0 build/aarch64/kernel/kernel.o
 .eh_frame      0x0000000000000000       0x50 build/aarch64/kernel/kernel.o
 .comment       0x0000000000000000       0x13 build/aarch64/kernel/selftest.o
 .note.GNU-stack
                0x0000000000000000        0x0 build/aarch64/kernel/selftest.o
 .eh_frame      0x0000000000000000      0x190 build/aarch64/kernel/selftest.o
 .comment       0x0000000000000000       0x13 build/aarch64/kernel/cpu/cpu.o
 .note.GNU-stack
                0x0000000000000000        0x0 build/aarch64/kernel/cpu/cpu.o
 .eh_frame      0x0000000000000000       0x38 build/aarch64/kernel/cpu/cpu.o
 .comment       0x0000000000000000       0x13 build/aarch64/kernel/memory/pmm.o
 .note.GNU-stack
                0x0000000000000000        0x0 build/aarch64/kernel/memory/pmm.o
 .eh_frame      0x0000000000000000      0x158 build/aarch64/kernel/memory/pmm.o
 .comment       0x0000000000000000       0x13 build/aarch64/kernel/memory/vmm.o
 .note.GNU-stack
                0x0000000000000000        0x0 build/aarch64/kernel/memory/vmm.o
 .eh_frame      0x0000000000000000      0x280 build/aarch64/kernel/memory/vmm.o
 .comment       0x0000000000000000       0x13 build/aarch64/kernel/terminal/terminal.o
 .note.GNU-stack
                0x0000000000000000        0x0 build/aarch64/kernel/terminal/terminal.o
 .eh_frame      0x0000000000000000       0x48 build/aarch64/kernel/terminal/terminal.o
 .comment       0x0000000000000000       0x13 build/aarch64/klib/printf/printf.o
 .note.GNU-stack
                0x0000000000000000        0x0 build/aarch64/klib/printf/printf.o
 .eh_frame      0x0000000000000000      0x308 build/aarch64/klib/printf/printf.o
 .comment       0x0000000000000000       0x13 build/aarch64/klib/klib.o
 .note.GNU-stack
                0x0000000000000000        0x0 build/aarch64/klib/klib.o
 .eh_frame      0x0000000000000000      0x200 build/aarch64/klib/klib.o
 .comment       0x0000000000000000       0x13 build/aarch64/arch/aarch64/arch_entry.o
 .note.GNU-stack
                0x0000000000000000        0x0 build/aarch64/arch/aarch64/arch_entry.o
 .eh_frame      0x0000000000000000       0xd8 build/aarch64/arch/aarch64/arch_entry.o
 .comment       0x0000000000000000       0x13 build/aarch64/arch/aarch64/arch_paging.o
 .note.GNU-stack
                0x0000000000000000        0x0 build/aarch64/arch/aarch64/arch_paging.o
 .eh_frame      0x0000000000000000      0x4d8 build/aarch64/arch/aarch64/arch_paging.o
 .comment       0x0000000000000000       0x13 build/aarch64/arch/aarch64/arch_init.o
 .note.GNU-stack
                0x0000000000000000        0x0 build/aarch64/arch/aarch64/arch_init.o
 .eh_frame      0x0000000000000000       0x28 build/aarch64/arch/aarch64/arch_init.o
 .comment       0x0000000000000000       0x13 build/aarch64/arch/aarch64/arch_acpi.o
 .note.GNU-stack
                0x0000000000000000        0x0 build/aarch64/arch/aarch64/arch_acpi.o
 .eh_frame      0x0000000000000000       0x28 build/aarch64/arch/aarch64/arch_acpi.o
 .comment       0x0000000000000000       0x13 build/aarch64/kernel/acpi/uACPI/source/default_handlers.o
 .note.GNU-stack
                0x0000000000000000        0x0 build/aarch64/kernel/acpi/uACPI/source/default_handlers.o
 .comment       0x0000000000000000       0x13 build/aarch64/kernel/acpi/uACPI/source/event.o
 .note.GNU-stack
                0x0000000000000000        0x0 build/aarch64/kernel/acpi/uACPI/source/event.o
 .comment       0x0000000000000000       0x13 build/aarch64/kernel/acpi/uACPI/source/interpreter.o
 .note.GNU-stack
                0x0000000000000000        0x0 build/aarch64/kernel/acpi/uACPI/source/interpreter.o
 .comment       0x0000000000000000       0x13 build/aarch64/kernel/acpi/uACPI/source/io.o
 .note.GNU-stack
                0x0000000000000000        0x0 build/aarch64/kernel/acpi/uACPI/source/io.o
 .comment       0x0000000000000000       0x13 build/aarch64/kernel/acpi/uACPI/source/mutex.o
 .note.GNU-stack
                0x0000000000000000        0x0 build/aarch64/kernel/acpi/uACPI/source/mutex.o
 .comment       0x0000000000000000       0x13 build/aarch64/kernel/acpi/uACPI/source/namespace.o
 .note.GNU-stack
                0x0000000000000000        0x0 build/aarch64/kernel/acpi/uACPI/source/namespace.o
 .comment       0x0000000000000000       0x13 build/aarch64/kernel/acpi/uACPI/source/notify.o
 .note.GNU-stack
                0x0000000000000000        0x0 build/aarch64/kernel/acpi/uACPI/source/notify.o
 .comment       0x0000000000000000       0x13 build/aarch64/kernel/acpi/uACPI/source/opcodes.o
 .note.GNU-stack
                0x0000000000000000        0x0 build/aarch64/kernel/acpi/uACPI/source/opcodes.o
 .comment       0x0000000000000000       0x13 build/aarch64/kernel/acpi/uACPI/source/opregion.o
 .note.GNU-stack
                0x0000000000000000        0x0 build/aarch64/kernel/acpi/uACPI/source/opregion.o
 .comment       0x0000000000000000       0x13 build/aarch64/kernel/acpi/uACPI/source/osi.o
 .note.GNU-stack
                0x0000000000000000        0x0 build/aarch64/kernel/acpi/uACPI/source/osi.o
 .comment       0x0000000000000000       0x13 build/aarch64/kernel/acpi/uACPI/source/registers.o
 .note.GNU-stack
                0x0000000000000000        0x0 build/aarch64/kernel/acpi/uACPI/source/registers.o
 .comment       0x0000000000000000       0x13 build/aarch64/kernel/acpi/uACPI/source/resources.o
 .note.GNU-stack
                0x0000000000000000        0x0 build/aarch64/kernel/acpi/uACPI/source/resources.o
 .comment       0x0000000000000000       0x13 build/aarch64/kernel/acpi/uACPI/source/shareable.o
 .note.GNU-stack
                0x0000000000000000        0x0 build/aarch64/kernel/acpi/uACPI/source/shareable.o
 .comment       0x0000000000000000       0x13 build/aarch64/kernel/acpi/uACPI/source/sleep.o
 .note.GNU-stack
                0x0000000000000000        0x0 build/aarch64/kernel/acpi/uACPI/source/sleep.o
 .comment       0x0000000000000000       0x13 build/aarch64/kernel/acpi/uACPI/source/stdlib.o
 .note.GNU-stack
                0x0000000000000000        0x0 build/aarch64/kernel/acpi/uACPI/source/stdlib.o
 .eh_frame      0x0000000000000000      0x120 build/aarch64/kernel/acpi/uACPI/source/stdlib.o
 .comment       0x0000000000000000       0x13 build/aarch64/kernel/acpi/uACPI/source/tables.o
 .note.GNU-stack
                0x0000000000000000        0x0 build/aarch64/kernel/acpi/uACPI/source/tables.o
 .eh_frame      0x0000000000000000      0x478 build/aarch64/kernel/acpi/uACPI/source/tables.o
 .comment       0x0000000000000000       0x13 build/aarch64/kernel/acpi/uACPI/source/types.o
 .note.GNU-stack
                0x0000000000000000        0x0 build/aarch64/kernel/acpi/uACPI/source/types.o
 .eh_frame      0x0000000000000000       0x28 build/aarch64/kernel/acpi/uACPI/source/types.o
 .comment       0x0000000000000000       0x13 build/aarch64/kernel/acpi/uACPI/source/uacpi.o
 .note.GNU-stack
                0x0000000000000000        0x0 build/aarch64/kernel/acpi/uACPI/source/uacpi.o
 .eh_frame      0x0000000000000000       0xb0 build/aarch64/kernel/acpi/uACPI/source/uacpi.o
 .comment       0x0000000000000000       0x13 build/aarch64/kernel/acpi/uACPI/source/utilities.o
 .note.GNU-stack
                0x0000000000000000        0x0 build/aarch64/kernel/acpi/uACPI/source/utilities.o
 .eh_frame      0x0000000000000000       0x28 build/aarch64/kernel/acpi/uACPI/source/utilities.o
 .comment       0x0000000000000000       0x13 build/aarch64/kernel/acpi/acpi.o
 .note.GNU-stack
                0x0000000000000000        0x0 build/aarch64/kernel/acpi/acpi.o
 .eh_frame      0x0000000000000000      0x110 build/aarch64/kernel/acpi/acpi.o
 .comment       0x0000000000000000       0x13 build/aarch64/kernel/terminal/flanterm/flanterm.o
 .note.GNU-stack
                0x0000000000000000        0x0 build/aarch64/kernel/terminal/flanterm/flanterm.o
 .eh_frame      0x0000000000000000      0x290 build/aarch64/kernel/terminal/flanterm/flanterm.o
 .comment       0x0000000000000000       0x13 build/aarch64/kernel/terminal/flanterm/flanterm_backends/fb.o
 .note.GNU-stack
                0x0000000000000000        0x0 build/aarch64/kernel/terminal/flanterm/flanterm_backends/fb.o
 .eh_frame      0x0000000000000000      0x3a8 build/aarch64/kernel/terminal/flanterm/flanterm_backends/fb.o
 .note.gnu.property
                0x0000000000000000        0x0 build/aarch64/kernel/terminal/flanterm/flanterm_backends/fb.o

Memory Configuration

Name             Origin             Length             Attributes
*default*        0x0000000000000000 0xffffffffffffffff

Linker script and memory map

                0xffffffff80000000                . = 0xffffffff80000000
                0xffffffff80000000                PROVIDE (__kernel_start = .)

.limine_requests
                0xffffffff80000000      0x188
 *(.limine_requests_start)
 .limine_requests_start
                0xffffffff80000000       0x20 build/aarch64/arch/aarch64/arch_entry.o
 *(.limine_requests)
 .limine_requests
                0xffffffff80000020      0x158 build/aarch64/arch/aarch64/arch_entry.o
 *(.limine_requests_end)
 .limine_requests_end
                0xffffffff80000178       0x10 build/aarch64/arch/aarch64/arch_entry.o
                0xffffffff80010000                . = ALIGN (CONSTANT (MAXPAGESIZE))

.text           0xffffffff80010000     0xf854
 *(.text .text.*)
 .text          0xffffffff80010000      0x1b8 build/aarch64/kernel/kernel.o
                0xffffffff80010000                kmain
                0xffffffff80010180                smp_kmain
 *fill*         0xffffffff800101b8        0x8 
 .text          0xffffffff800101c0     0x1598 build/aarch64/kernel/selftest.o
                0xffffffff800101c0                vmm_test
                0xffffffff80010aa0                pmm_test
                0xffffffff800114c0                klib_test
                0xffffffff80011740                run_selftests
 *fill*         0xffffffff80011758        0x8 
 .text          0xffffffff80011760       0x70 build/aarch64/kernel/cpu/cpu.o
                0xffffffff80011760                cpus_init
 *fill*         0xffffffff800117d0       0x10 
 .text          0xffffffff800117e0      0x904 build/aarch64/kernel/memory/pmm.o
                0xffffffff800117e0                pmm_alloc_from_region
                0xffffffff80011848                add_block_to_free_list
                0xffffffff80011880                buddy_seed_region
                0xffffffff80011904                buddy_allocator_init
                0xffffffff80011980                pmm_init
                0xffffffff80011c40                remove_block_from_free_list
                0xffffffff80011c6c                split_block
                0xffffffff80011cd0                buddy_alloc
                0xffffffff80011d90                merge_block
                0xffffffff80011e20                buddy_free
                0xffffffff80011ee8                pmm_alloc
                0xffffffff80012000                pmm_free
 *fill*         0xffffffff800120e4       0x1c 
 .text          0xffffffff80012100     0x119c build/aarch64/kernel/memory/vmm.o
                0xffffffff800122d0                alloc_region_struct
                0xffffffff80012320                free_region_struct
                0xffffffff80012340                add_to_regions_list
                0xffffffff80012360                remove_from_regions_list
                0xffffffff8001238c                remove_existing_mappings
                0xffffffff800123ac                vmm_init
                0xffffffff800126d0                vmm_map_page
                0xffffffff80012760                vmm_unmap_page
                0xffffffff800127e0                vmm_map_range
                0xffffffff8001286c                vmm_unmap_range
                0xffffffff800128f0                vmm_protect_page
                0xffffffff80012980                vmm_protect_range
                0xffffffff80012a04                vmm_switch_addr_space
                0xffffffff80012a80                vmm_virt_to_phys
                0xffffffff80012b00                vmm_reserve_region
                0xffffffff80012ccc                vmm_free_region
                0xffffffff80013120                vmm_find_region
 *fill*         0xffffffff8001329c        0x4 
 .text          0xffffffff800132a0       0xcc build/aarch64/kernel/terminal/terminal.o
                0xffffffff800132a0                terminal_init
                0xffffffff80013360                terminal_get_context
 *fill*         0xffffffff8001336c       0x14 
 .text          0xffffffff80013380     0x20dc build/aarch64/klib/printf/printf.o
                0xffffffff800151e0                printf_
                0xffffffff80015260                sprintf_
                0xffffffff800152e0                snprintf_
                0xffffffff80015360                vprintf_
                0xffffffff800153a0                vsnprintf_
                0xffffffff800153e0                fctprintf
 *fill*         0xffffffff8001545c        0x4 
 .text          0xffffffff80015460      0x690 build/aarch64/klib/klib.o
                0xffffffff80015460                kprintf
                0xffffffff80015530                kterm_write
                0xffffffff8001564c                kterm_vprintf
                0xffffffff800156b0                kterm_printf
                0xffffffff80015728                memset
                0xffffffff80015750                memcpy
                0xffffffff80015780                memcmp
                0xffffffff800157c0                strlen
                0xffffffff80015800                pa_to_hhdm
                0xffffffff80015820                hhdm_to_pa
                0xffffffff80015830                vmalloc
                0xffffffff800159c0                vfree
 *fill*         0xffffffff80015af0       0x10 
 .text          0xffffffff80015b00      0x480 build/aarch64/arch/aarch64/arch_entry.o
                0xffffffff80015b60                arch_enable_interrupts
                0xffffffff80015b68                arch_disable_interrupts
                0xffffffff80015b70                arch_halt
                0xffffffff80015b80                arch_pause
                0xffffffff80015b88                arch_cpu_id
                0xffffffff80015b90                arch_serial_putchar
                0xffffffff80015bc4                arch_smp_init
                0xffffffff80015c40                _start
 .text          0xffffffff80015f80     0x1a10 build/aarch64/arch/aarch64/arch_paging.o
                0xffffffff800160c0                arch_get_pt
                0xffffffff800160cc                arch_set_pt
                0xffffffff80016140                arch_map_page
                0xffffffff80016400                arch_unmap_page
                0xffffffff80016630                arch_map_range
                0xffffffff80016d88                arch_unmap_range
                0xffffffff80017148                arch_protect
                0xffffffff800173c0                arch_protect_range
                0xffffffff800177c0                arch_virt_to_phys
 *fill*         0xffffffff80017990       0x10 
 .text          0xffffffff800179a0        0x4 build/aarch64/arch/aarch64/arch_init.o
                0xffffffff800179a0                arch_init
 *fill*         0xffffffff800179a4       0x1c 
 .text          0xffffffff800179c0        0x8 build/aarch64/arch/aarch64/arch_acpi.o
                0xffffffff800179c0                arch_acpi_init
 .text          0xffffffff800179c8        0x0 build/aarch64/kernel/acpi/uACPI/source/default_handlers.o
 .text          0xffffffff800179c8        0x0 build/aarch64/kernel/acpi/uACPI/source/event.o
 .text          0xffffffff800179c8        0x0 build/aarch64/kernel/acpi/uACPI/source/interpreter.o
 .text          0xffffffff800179c8        0x0 build/aarch64/kernel/acpi/uACPI/source/io.o
 .text          0xffffffff800179c8        0x0 build/aarch64/kernel/acpi/uACPI/source/mutex.o
 .text          0xffffffff800179c8        0x0 build/aarch64/kernel/acpi/uACPI/source/namespace.o
 .text          0xffffffff800179c8        0x0 build/aarch64/kernel/acpi/uACPI/source/notify.o
 .text          0xffffffff800179c8        0x0 build/aarch64/kernel/acpi/uACPI/source/opcodes.o
 .text          0xffffffff800179c8        0x0 build/aarch64/kernel/acpi/uACPI/source/opregion.o
 .text          0xffffffff800179c8        0x0 build/aarch64/kernel/acpi/uACPI/source/osi.o
 .text          0xffffffff800179c8        0x0 build/aarch64/kernel/acpi/uACPI/source/registers.o
 .text          0xffffffff800179c8        0x0 build/aarch64/kernel/acpi/uACPI/source/resources.o
 .text          0xffffffff800179c8        0x0 build/aarch64/kernel/acpi/uACPI/source/shareable.o
 .text          0xffffffff800179c8        0x0 build/aarch64/kernel/acpi/uACPI/source/sleep.o
 *fill*         0xffffffff800179c8       0x18 
 .text          0xffffffff800179e0      0xf28 build/aarch64/kernel/acpi/uACPI/source/stdlib.o
                0xffffffff80017a80                uacpi_strlen
                0xffffffff80017aa4                uacpi_vsnprintf
                0xffffffff80018800                uacpi_snprintf
                0xffffffff80018864                uacpi_log
 *fill*         0xffffffff80018908       0x18 
 .text          0xffffffff80018920     0x153c build/aarch64/kernel/acpi/uACPI/source/tables.o
                0xffffffff80018a90                uacpi_table_subsystem_available
                0xffffffff80018aa0                uacpi_deinitialize_tables
                0xffffffff80018ba0                uacpi_set_table_installation_handler
                0xffffffff80018bc4                uacpi_verify_table_checksum
                0xffffffff80018f20                uacpi_signatures_match
                0xffffffff80018f40                uacpi_check_table_signature
                0xffffffff80019660                uacpi_setup_early_table_access
                0xffffffff80019968                uacpi_table_install_physical_with_origin
                0xffffffff80019980                uacpi_table_install_with_origin
                0xffffffff800199e4                uacpi_table_install
                0xffffffff80019a60                uacpi_table_install_physical
                0xffffffff80019a84                uacpi_for_each_table
                0xffffffff80019b40                uacpi_table_find_by_signature
                0xffffffff80019b88                uacpi_table_find
                0xffffffff80019bac                uacpi_table_ref
                0xffffffff80019c30                uacpi_table_unref
                0xffffffff80019cc0                uacpi_table_find_next_with_same_signature
                0xffffffff80019d24                uacpi_table_fadt
                0xffffffff80019d4c                uacpi_for_each_subtable
 *fill*         0xffffffff80019e5c        0x4 
 .text          0xffffffff80019e60       0xf0 build/aarch64/kernel/acpi/uACPI/source/types.o
                0xffffffff80019e60                uacpi_address_space_to_string
 *fill*         0xffffffff80019f50       0x10 
 .text          0xffffffff80019f60      0x304 build/aarch64/kernel/acpi/uACPI/source/uacpi.o
                0xffffffff80019f60                uacpi_is_platform_reduced_hardware
                0xffffffff80019fa4                uacpi_context_set_log_level
                0xffffffff80019fc0                uacpi_logger_initialize
                0xffffffff8001a020                uacpi_context_set_proactive_table_checksum
                0xffffffff8001a044                uacpi_status_to_string
                0xffffffff8001a240                uacpi_state_reset
 *fill*         0xffffffff8001a264       0x1c 
 .text          0xffffffff8001a280      0x234 build/aarch64/kernel/acpi/uACPI/source/utilities.o
                0xffffffff8001a280                uacpi_string_to_integer
 *fill*         0xffffffff8001a4b4        0xc 
 .text          0xffffffff8001a4c0      0x348 build/aarch64/kernel/acpi/acpi.o
                0xffffffff8001a4c0                uacpi_kernel_get_rsdp
                0xffffffff8001a4e0                uacpi_kernel_map
                0xffffffff8001a590                uacpi_kernel_unmap
                0xffffffff8001a600                uacpi_kernel_log
                0xffffffff8001a620                acpi_get_madt
                0xffffffff8001a680                acpi_init
 *fill*         0xffffffff8001a808       0x18 
 .text          0xffffffff8001a820     0x2eec build/aarch64/kernel/terminal/flanterm/flanterm.o
                0xffffffff8001ab8c                flanterm_context_reinit
                0xffffffff8001ac00                flanterm_write
                0xffffffff8001d544                flanterm_flush
                0xffffffff8001d550                flanterm_full_refresh
                0xffffffff8001d560                flanterm_deinit
                0xffffffff8001d56c                flanterm_get_dimensions
                0xffffffff8001d580                flanterm_set_autoflush
                0xffffffff8001d588                flanterm_set_callback
                0xffffffff8001d590                flanterm_get_cursor_pos
                0xffffffff8001d5a0                flanterm_set_cursor_pos
                0xffffffff8001d5cc                flanterm_set_text_fg
                0xffffffff8001d610                flanterm_set_text_bg
                0xffffffff8001d660                flanterm_reset_text_fg
                0xffffffff8001d6ac                flanterm_reset_text_bg
                0xffffffff8001d700                flanterm_clear
 *fill*         0xffffffff8001d70c       0x14 
 .text          0xffffffff8001d720     0x2134 build/aarch64/kernel/terminal/flanterm/flanterm_backends/fb.o
                0xffffffff8001e96c                flanterm_fb_init
                0xffffffff8001f84c                flanterm_fb_set_flush_callback

.iplt           0xffffffff8001f854        0x0
 .iplt          0xffffffff8001f854        0x0 build/aarch64/kernel/kernel.o
                0xffffffff80020000                . = ALIGN (CONSTANT (MAXPAGESIZE))

.rodata         0xffffffff80020000     0x5c00
 *(.rodata .rodata.*)
 .rodata.str1.8
                0xffffffff80020000     0x2917 build/aarch64/kernel/kernel.o
                                        0x1f6 (size before relaxing)
 .rodata.str1.8
                0xffffffff80022917      0xd73 build/aarch64/kernel/selftest.o
 *fill*         0xffffffff80022917        0x1 
 .rodata        0xffffffff80022918       0x70 build/aarch64/kernel/selftest.o
 .rodata.str1.8
                0xffffffff80022988      0x131 build/aarch64/kernel/memory/pmm.o
 .rodata.str1.8
                0xffffffff80022988       0x30 build/aarch64/kernel/memory/vmm.o
 .rodata.str1.8
                0xffffffff80022988       0x1d build/aarch64/klib/printf/printf.o
 *fill*         0xffffffff80022988        0x8 
 .rodata        0xffffffff80022990       0xe0 build/aarch64/klib/printf/printf.o
 .rodata.cst16  0xffffffff80022a70       0xf0 build/aarch64/klib/printf/printf.o
                                         0xc0 (size before relaxing)
 .rodata.cst8   0xffffffff80022b60       0x40 build/aarch64/klib/printf/printf.o
                                         0x38 (size before relaxing)
 .rodata        0xffffffff80022ba0        0x3 build/aarch64/klib/klib.o
 .rodata.str1.8
                0xffffffff80022ba3       0x8b build/aarch64/arch/aarch64/arch_entry.o
 *fill*         0xffffffff80022ba3        0xd 
 .rodata        0xffffffff80022bb0       0x16 build/aarch64/arch/aarch64/arch_entry.o
 .rodata.str1.8
                0xffffffff80022bc6      0xc74 build/aarch64/arch/aarch64/arch_paging.o
 .rodata.str1.8
                0xffffffff80022bc6       0x7a build/aarch64/kernel/acpi/uACPI/source/stdlib.o
 *fill*         0xffffffff80022bc6        0xa 
 .rodata        0xffffffff80022bd0       0x31 build/aarch64/kernel/acpi/uACPI/source/stdlib.o
 .rodata.str1.8
                0xffffffff80022c01      0x4b7 build/aarch64/kernel/acpi/uACPI/source/tables.o
 *fill*         0xffffffff80022c01        0x7 
 .rodata        0xffffffff80022c08       0xc0 build/aarch64/kernel/acpi/uACPI/source/tables.o
 .rodata.str1.8
                0xffffffff80022cc8       0xf1 build/aarch64/kernel/acpi/uACPI/source/types.o
 .rodata        0xffffffff80022cc8        0xb build/aarch64/kernel/acpi/uACPI/source/types.o
 .rodata.str1.8
                0xffffffff80022cd3      0x405 build/aarch64/kernel/acpi/uACPI/source/uacpi.o
 *fill*         0xffffffff80022cd3        0x1 
 .rodata        0xffffffff80022cd4       0x1e build/aarch64/kernel/acpi/uACPI/source/uacpi.o
 *fill*         0xffffffff80022cf2        0xe 
 .rodata        0xffffffff80022d00      0x100 build/aarch64/kernel/acpi/uACPI/source/utilities.o
 .rodata.str1.8
                0xffffffff80022e00       0xe7 build/aarch64/kernel/acpi/acpi.o
 .rodata        0xffffffff80022e00     0x1e00 build/aarch64/kernel/terminal/flanterm/flanterm.o
 .rodata.cst8   0xffffffff80024c00        0x8 build/aarch64/kernel/terminal/flanterm/flanterm.o
 .rodata.cst16  0xffffffff80024c00       0x20 build/aarch64/kernel/terminal/flanterm/flanterm.o
 .rodata.cst16  0xffffffff80024c00       0x10 build/aarch64/kernel/terminal/flanterm/flanterm_backends/fb.o
 .rodata        0xffffffff80024c00     0x1000 build/aarch64/kernel/terminal/flanterm/flanterm_backends/fb.o

.note.gnu.build-id
                0xffffffff80025c00       0x24
 *(.note.gnu.build-id)
 .note.gnu.build-id
                0xffffffff80025c00       0x24 build/aarch64/kernel/kernel.o

.rela.dyn       0xffffffff80025c28        0x0
 .rela.iplt     0xffffffff80025c28        0x0 build/aarch64/kernel/kernel.o
 .rela.text     0xffffffff80025c28        0x0 build/aarch64/kernel/kernel.o
                0xffffffff80030000                . = ALIGN (CONSTANT (MAXPAGESIZE))

.data           0xffffffff80030000       0x1c
 *(.data .data.*)
 .data          0xffffffff80030000        0x0 build/aarch64/kernel/kernel.o
 .data          0xffffffff80030000        0x0 build/aarch64/kernel/selftest.o
 .data          0xffffffff80030000        0x0 build/aarch64/kernel/cpu/cpu.o
 .data          0xffffffff80030000        0x0 build/aarch64/kernel/memory/pmm.o
 .data          0xffffffff80030000        0x0 build/aarch64/kernel/memory/vmm.o
 .data          0xffffffff80030000        0x0 build/aarch64/kernel/terminal/terminal.o
 .data          0xffffffff80030000        0x0 build/aarch64/klib/printf/printf.o
 .data          0xffffffff80030000        0x0 build/aarch64/klib/klib.o
 .data          0xffffffff80030000        0x8 build/aarch64/arch/aarch64/arch_entry.o
 .data          0xffffffff80030008        0x0 build/aarch64/arch/aarch64/arch_paging.o
 .data          0xffffffff80030008        0x0 build/aarch64/arch/aarch64/arch_init.o
 .data          0xffffffff80030008        0x0 build/aarch64/arch/aarch64/arch_acpi.o
 .data          0xffffffff80030008        0x0 build/aarch64/kernel/acpi/uACPI/source/default_handlers.o
 .data          0xffffffff80030008        0x0 build/aarch64/kernel/acpi/uACPI/source/event.o
 .data          0xffffffff80030008        0x0 build/aarch64/kernel/acpi/uACPI/source/interpreter.o
 .data          0xffffffff80030008        0x0 build/aarch64/kernel/acpi/uACPI/source/io.o
 .data          0xffffffff80030008        0x0 build/aarch64/kernel/acpi/uACPI/source/mutex.o
 .data          0xffffffff80030008        0x0 build/aarch64/kernel/acpi/uACPI/source/namespace.o
 .data          0xffffffff80030008        0x0 build/aarch64/kernel/acpi/uACPI/source/notify.o
 .data          0xffffffff80030008        0x0 build/aarch64/kernel/acpi/uACPI/source/opcodes.o
 .data          0xffffffff80030008        0x0 build/aarch64/kernel/acpi/uACPI/source/opregion.o
 .data          0xffffffff80030008        0x0 build/aarch64/kernel/acpi/uACPI/source/osi.o
 .data          0xffffffff80030008        0x0 build/aarch64/kernel/acpi/uACPI/source/registers.o
 .data          0xffffffff80030008        0x0 build/aarch64/kernel/acpi/uACPI/source/resources.o
 .data          0xffffffff80030008        0x0 build/aarch64/kernel/acpi/uACPI/source/shareable.o
 .data          0xffffffff80030008        0x0 build/aarch64/kernel/acpi/uACPI/source/sleep.o
 .data          0xffffffff80030008        0x0 build/aarch64/kernel/acpi/uACPI/source/stdlib.o
 *fill*         0xffffffff80030008        0x8 
 .data          0xffffffff80030010        0xc build/aarch64/kernel/acpi/uACPI/source/tables.o
                0xffffffff80030010                fadt_version_sizes
 .data          0xffffffff8003001c        0x0 build/aarch64/kernel/acpi/uACPI/source/types.o
 .data          0xffffffff8003001c        0x0 build/aarch64/kernel/acpi/uACPI/source/uacpi.o
 .data          0xffffffff8003001c        0x0 build/aarch64/kernel/acpi/uACPI/source/utilities.o
 .data          0xffffffff8003001c        0x0 build/aarch64/kernel/acpi/acpi.o
 .data          0xffffffff8003001c        0x0 build/aarch64/kernel/terminal/flanterm/flanterm.o
 .data          0xffffffff8003001c        0x0 build/aarch64/kernel/terminal/flanterm/flanterm_backends/fb.o

.igot.plt       0xffffffff80030020        0x0
 .igot.plt      0xffffffff80030020        0x0 build/aarch64/kernel/kernel.o

.bss            0xffffffff80030020    0xefdf8
 *(.bss .bss.*)
 .bss           0xffffffff80030020       0xe0 build/aarch64/kernel/kernel.o
                0xffffffff80030020                dispatcher
 .bss           0xffffffff80030100    0x18000 build/aarch64/kernel/selftest.o
 .bss           0xffffffff80048100        0x0 build/aarch64/kernel/cpu/cpu.o
 .bss           0xffffffff80048100      0xcc0 build/aarch64/kernel/memory/pmm.o
 .bss           0xffffffff80048dc0       0x88 build/aarch64/kernel/memory/vmm.o
                0xffffffff80048dc0                MAX_REGIONS
                0xffffffff80048dc8                KERNEL_VIRTUAL_BASE
                0xffffffff80048dd0                KERNEL_VIRTUAL_END
                0xffffffff80048dd8                USER_VIRTUAL_BASE
                0xffffffff80048de0                USER_VIRTUAL_END
 .bss           0xffffffff80048e48        0x0 build/aarch64/kernel/terminal/terminal.o
 .bss           0xffffffff80048e48        0x0 build/aarch64/klib/printf/printf.o
 .bss           0xffffffff80048e48        0x1 build/aarch64/klib/klib.o
                0xffffffff80048e48                kprintf_lock
 *fill*         0xffffffff80048e49        0x7 
 .bss           0xffffffff80048e50     0x1808 build/aarch64/arch/aarch64/arch_entry.o
 .bss           0xffffffff8004a658        0x0 build/aarch64/arch/aarch64/arch_paging.o
 .bss           0xffffffff8004a658        0x0 build/aarch64/arch/aarch64/arch_init.o
 .bss           0xffffffff8004a658        0x0 build/aarch64/arch/aarch64/arch_acpi.o
 .bss           0xffffffff8004a658        0x0 build/aarch64/kernel/acpi/uACPI/source/default_handlers.o
 .bss           0xffffffff8004a658        0x0 build/aarch64/kernel/acpi/uACPI/source/event.o
 .bss           0xffffffff8004a658        0x0 build/aarch64/kernel/acpi/uACPI/source/interpreter.o
 .bss           0xffffffff8004a658        0x0 build/aarch64/kernel/acpi/uACPI/source/io.o
 .bss           0xffffffff8004a658        0x0 build/aarch64/kernel/acpi/uACPI/source/mutex.o
 .bss           0xffffffff8004a658        0x0 build/aarch64/kernel/acpi/uACPI/source/namespace.o
 .bss           0xffffffff8004a658        0x0 build/aarch64/kernel/acpi/uACPI/source/notify.o
 .bss           0xffffffff8004a658        0x0 build/aarch64/kernel/acpi/uACPI/source/opcodes.o
 .bss           0xffffffff8004a658        0x0 build/aarch64/kernel/acpi/uACPI/source/opregion.o
 .bss           0xffffffff8004a658        0x0 build/aarch64/kernel/acpi/uACPI/source/osi.o
 .bss           0xffffffff8004a658        0x0 build/aarch64/kernel/acpi/uACPI/source/registers.o
 .bss           0xffffffff8004a658        0x0 build/aarch64/kernel/acpi/uACPI/source/resources.o
 .bss           0xffffffff8004a658        0x0 build/aarch64/kernel/acpi/uACPI/source/shareable.o
 .bss           0xffffffff8004a658        0x0 build/aarch64/kernel/acpi/uACPI/source/sleep.o
 .bss           0xffffffff8004a658        0x0 build/aarch64/kernel/acpi/uACPI/source/stdlib.o
 *fill*         0xffffffff8004a658        0x8 
 .bss           0xffffffff8004a660      0x430 build/aarch64/kernel/acpi/uACPI/source/tables.o
 .bss           0xffffffff8004aa90        0x0 build/aarch64/kernel/acpi/uACPI/source/types.o
 .bss           0xffffffff8004aa90      0x129 build/aarch64/kernel/acpi/uACPI/source/uacpi.o
                0xffffffff8004aa90                g_uacpi_rt_ctx
 .bss           0xffffffff8004abb9        0x0 build/aarch64/kernel/acpi/uACPI/source/utilities.o
 *fill*         0xffffffff8004abb9        0x7 
 .bss           0xffffffff8004abc0       0x10 build/aarch64/kernel/acpi/acpi.o
                0xffffffff8004abc0                uacpi_rsdp_address
                0xffffffff8004abc8                uacpi_early_table_buffer
 .bss           0xffffffff8004abd0        0x0 build/aarch64/kernel/terminal/flanterm/flanterm.o
 .bss           0xffffffff8004abd0    0xd5248 build/aarch64/kernel/terminal/flanterm/flanterm_backends/fb.o
 *(COMMON)
                0xffffffff80120000                . = ALIGN (CONSTANT (MAXPAGESIZE))
                0xffffffff80120000                PROVIDE (__kernel_end = .)

/DISCARD/
 *(.eh_frame*)
 *(.note .note.*)
 *(.comment)
LOAD build/aarch64/kernel/kernel.o
LOAD build/aarch64/kernel/selftest.o
LOAD build/aarch64/kernel/cpu/cpu.o
LOAD build/aarch64/kernel/memory/pmm.o
LOAD build/aarch64/kernel/memory/vmm.o
LOAD build/aarch64/kernel/terminal/terminal.o
LOAD build/aarch64/klib/printf/printf.o
LOAD build/aarch64/klib/klib.o
LOAD build/aarch64/arch/aarch64/arch_entry.o
LOAD build/aarch64/arch/aarch64/arch_paging.o
LOAD build/aarch64/arch/aarch64/arch_init.o
LOAD build/aarch64/arch/aarch64/arch_acpi.o
LOAD build/aarch64/kernel/acpi/uACPI/source/default_handlers.o
LOAD build/aarch64/kernel/acpi/uACPI/source/event.o
LOAD build/aarch64/kernel/acpi/uACPI/source/interpreter.o
LOAD build/aarch64/kernel/acpi/uACPI/source/io.o
LOAD build/aarch64/kernel/acpi/uACPI/source/mutex.o
LOAD build/aarch64/kernel/acpi/uACPI/source/namespace.o
LOAD build/aarch64/kernel/acpi/uACPI/source/notify.o
LOAD build/aarch64/kernel/acpi/uACPI/source/opcodes.o
LOAD build/aarch64/kernel/acpi/uACPI/source/opregion.o
LOAD build/aarch64/kernel/acpi/uACPI/source/osi.o
LOAD build/aarch64/kernel/acpi/uACPI/source/registers.o
LOAD build/aarch64/kernel/acpi/uACPI/source/resources.o
LOAD build/aarch64/kernel/acpi/uACPI/source/shareable.o
LOAD build/aarch64/kernel/acpi/uACPI/source/sleep.o
LOAD build/aarch64/kernel/acpi/uACPI/source/stdlib.o
LOAD build/aarch64/kernel/acpi/uACPI/source/tables.o
LOAD build/aarch64/kernel/acpi/uACPI/source/types.o
LOAD build/aarch64/kernel/acpi/uACPI/source/uacpi.o
LOAD build/aarch64/kernel/acpi/uACPI/source/utilities.o
LOAD build/aarch64/kernel/acpi/acpi.o
LOAD build/aarch64/kernel/terminal/flanterm/flanterm.o
LOAD build/aarch64/kernel/terminal/flanterm/flanterm_backends/fb.o
OUTPUT(bin/kernel-aarch64.elf elf64-littleaarch64)
LOAD linker stubs
